0000000000458160 T atexit
                 U atoi@@GLIBC_2.2.5
                 U bind@@GLIBC_2.2.5
0000000000674558 B __bss_start
                 U calloc@@GLIBC_2.2.5
                 U chmod@@GLIBC_2.2.5
                 U clock_gettime@@GLIBC_2.2.5
                 U closedir@@GLIBC_2.2.5
                 U close@@GLIBC_2.2.5
0000000000674568 b completed.7932
                 U connect@@GLIBC_2.2.5
000000000043c0a0 T cudaArrayGetInfo
00000000004377c0 T cudaBindSurfaceToArray
00000000004384e0 T cudaBindTexture
0000000000438280 T cudaBindTexture2D
00000000004380a0 T cudaBindTextureToArray
0000000000437ec0 T cudaBindTextureToMipmappedArray
00000000004423d0 T cudaChooseDevice
00000000004371e0 T cudaCreateChannelDesc
0000000000436740 T cudaCreateSurfaceObject
0000000000436fe0 T cudaCreateTextureObject
0000000000440010 T cudaDestroyExternalMemory
000000000043fcb0 T cudaDestroyExternalSemaphore
00000000004365a0 T cudaDestroySurfaceObject
0000000000436e40 T cudaDestroyTextureObject
0000000000439340 T cudaDeviceCanAccessPeer
0000000000438ff0 T cudaDeviceDisablePeerAccess
0000000000439180 T cudaDeviceEnablePeerAccess
0000000000442790 T cudaDeviceGetAttribute
00000000004449a0 T cudaDeviceGetByPCIBusId
00000000004451e0 T cudaDeviceGetCacheConfig
0000000000445380 T cudaDeviceGetLimit
0000000000442590 T cudaDeviceGetP2PAttribute
00000000004447c0 T cudaDeviceGetPCIBusId
0000000000444cf0 T cudaDeviceGetSharedMemConfig
0000000000445020 T cudaDeviceGetStreamPriorityRange
0000000000430480 T cudaDeviceReset
0000000000444e90 T cudaDeviceSetCacheConfig
0000000000430140 T cudaDeviceSetLimit
0000000000444b60 T cudaDeviceSetSharedMemConfig
0000000000430300 T cudaDeviceSynchronize
0000000000436240 T cudaDriverGetVersion
0000000000450560 T cudaEGLStreamConsumerAcquireFrame
000000000044f630 T cudaEGLStreamConsumerConnect
000000000044f450 T cudaEGLStreamConsumerConnectWithFlags
0000000000450760 T cudaEGLStreamConsumerDisconnect
0000000000450380 T cudaEGLStreamConsumerReleaseFrame
0000000000450180 T cudaEGLStreamProducerConnect
000000000044ffe0 T cudaEGLStreamProducerDisconnect
000000000044fdb0 T cudaEGLStreamProducerPresentFrame
000000000044fbd0 T cudaEGLStreamProducerReturnFrame
0000000000440fb0 T cudaEventCreate
000000000044f270 T cudaEventCreateFromEGLSync
0000000000440df0 T cudaEventCreateWithFlags
0000000000440910 T cudaEventDestroy
0000000000440730 T cudaEventElapsedTime
0000000000440c50 T cudaEventQuery
0000000000448d10 T cudaEventRecord
0000000000445fd0 T cudaEventRecord_ptsz
0000000000440ab0 T cudaEventSynchronize
0000000000440390 T cudaExternalMemoryGetMappedBuffer
00000000004401b0 T cudaExternalMemoryGetMappedMipmappedArray
000000000043de70 T cudaFree
000000000043db30 T cudaFreeArray
000000000043dcd0 T cudaFreeHost
000000000043d990 T cudaFreeMipmappedArray
000000000043f2a0 T cudaFuncGetAttributes
000000000043f0c0 T cudaFuncSetAttribute
000000000043f620 T cudaFuncSetCacheConfig
000000000043f460 T cudaFuncSetSharedMemConfig
0000000000437440 T cudaGetChannelDesc
00000000004420a0 T cudaGetDevice
0000000000442b30 T cudaGetDeviceCount
0000000000441bb0 T cudaGetDeviceFlags
0000000000442970 T cudaGetDeviceProperties
0000000000442e50 T cudaGetErrorName
0000000000442cd0 T cudaGetErrorString
0000000000409900 T cudaGetExportTable
000000000042f9f0 T __cudaGetExportTableInternal
0000000000443140 T cudaGetLastError
000000000043c7a0 T cudaGetMipmappedArrayLevel
00000000004363e0 T cudaGetSurfaceObjectResourceDesc
0000000000437600 T cudaGetSurfaceReference
000000000043a5c0 T cudaGetSymbolAddress
000000000043a400 T cudaGetSymbolSize
0000000000437b60 T cudaGetTextureAlignmentOffset
0000000000436c80 T cudaGetTextureObjectResourceDesc
0000000000436900 T cudaGetTextureObjectResourceViewDesc
0000000000436ac0 T cudaGetTextureObjectTextureDesc
00000000004379a0 T cudaGetTextureReference
000000000044e2d0 T cudaGLGetDevices
000000000044eba0 T cudaGLMapBufferObject
000000000044e4d0 T cudaGLMapBufferObjectAsync
000000000044ed60 T cudaGLRegisterBufferObject
000000000044e6c0 T cudaGLSetBufferObjectMapFlags
000000000044eef0 T cudaGLSetGLDevice
000000000044ea10 T cudaGLUnmapBufferObject
000000000044f080 T cudaGLUnmapBufferObjectAsync
000000000044e880 T cudaGLUnregisterBufferObject
0000000000434690 T cudaGraphAddChildGraphNode
00000000004331f0 T cudaGraphAddDependencies
00000000004342d0 T cudaGraphAddEmptyNode
0000000000434c20 T cudaGraphAddHostNode
0000000000435cd0 T cudaGraphAddKernelNode
0000000000435740 T cudaGraphAddMemcpyNode
00000000004351b0 T cudaGraphAddMemsetNode
00000000004344d0 T cudaGraphChildGraphNodeGetGraph
0000000000434110 T cudaGraphClone
0000000000435ee0 T cudaGraphCreate
0000000000432720 T cudaGraphDestroy
0000000000432e50 T cudaGraphDestroyNode
00000000004328c0 T cudaGraphExecDestroy
0000000000432a60 T cudaGraphExecKernelNodeSetParams
00000000004337b0 T cudaGraphGetEdges
0000000000433b90 T cudaGraphGetNodes
00000000004339b0 T cudaGraphGetRootNodes
0000000000434a60 T cudaGraphHostNodeGetParams
00000000004348a0 T cudaGraphHostNodeSetParams
000000000044f7f0 T cudaGraphicsEGLRegisterImage
000000000044def0 T cudaGraphicsGLRegisterBuffer
000000000044e0d0 T cudaGraphicsGLRegisterImage
000000000044b300 T cudaGraphicsMapResources
000000000044f9d0 T cudaGraphicsResourceGetMappedEglFrame
00000000004386f0 T cudaGraphicsResourceGetMappedMipmappedArray
0000000000438ab0 T cudaGraphicsResourceGetMappedPointer
0000000000438c90 T cudaGraphicsResourceSetMapFlags
00000000004388b0 T cudaGraphicsSubResourceGetMappedArray
000000000044b110 T cudaGraphicsUnmapResources
0000000000438e50 T cudaGraphicsUnregisterResource
0000000000450b00 T cudaGraphicsVDPAURegisterOutputSurface
0000000000450ce0 T cudaGraphicsVDPAURegisterVideoSurface
0000000000432c40 T cudaGraphInstantiate
0000000000435b10 T cudaGraphKernelNodeGetParams
0000000000435950 T cudaGraphKernelNodeSetParams
00000000004475d0 T cudaGraphLaunch
000000000044af40 T cudaGraphLaunch_ptsz
0000000000435580 T cudaGraphMemcpyNodeGetParams
00000000004353c0 T cudaGraphMemcpyNodeSetParams
0000000000434ff0 T cudaGraphMemsetNodeGetParams
0000000000434e30 T cudaGraphMemsetNodeSetParams
0000000000433f30 T cudaGraphNodeFindInClone
00000000004335d0 T cudaGraphNodeGetDependencies
00000000004333f0 T cudaGraphNodeGetDependentNodes
0000000000433d70 T cudaGraphNodeGetType
0000000000432ff0 T cudaGraphRemoveDependencies
0000000000674520 d cudaguidstructstamp
000000000043d7b0 T cudaHostAlloc
000000000043d250 T cudaHostGetDevicePointer
000000000043d090 T cudaHostGetFlags
000000000043d5d0 T cudaHostRegister
000000000043d430 T cudaHostUnregister
0000000000440570 T cudaImportExternalMemory
000000000043fe50 T cudaImportExternalSemaphore
000000000040e8c0 T __cudaInitModule
0000000000443c60 T cudaIpcCloseMemHandle
0000000000444600 T cudaIpcGetEventHandle
0000000000444130 T cudaIpcGetMemHandle
00000000004442f0 T cudaIpcOpenEventHandle
0000000000443e00 T cudaIpcOpenMemHandle
0000000000447f90 T cudaLaunchCooperativeKernel
000000000043f7e0 T cudaLaunchCooperativeKernelMultiDevice
000000000043f9c0 T cudaLaunchCooperativeKernel_ptsz
0000000000447da0 T cudaLaunchHostFunc
000000000044d7e0 T cudaLaunchHostFunc_ptsz
0000000000448280 T cudaLaunchKernel
00000000004458e0 T cudaLaunchKernel_ptsz
000000000043e5d0 T cudaMalloc
000000000043ce70 T cudaMalloc3D
000000000043cc00 T cudaMalloc3DArray
000000000043e010 T cudaMallocArray
000000000043e410 T cudaMallocHost
000000000043e790 T cudaMallocManaged
000000000043c980 T cudaMallocMipmappedArray
000000000043e220 T cudaMallocPitch
000000000043a200 T cudaMemAdvise
0000000000432530 T cudaMemcpy
0000000000431eb0 T cudaMemcpy2D
0000000000431010 T cudaMemcpy2DArrayToArray
000000000043b270 T cudaMemcpy2DArrayToArray_ptds
000000000044a600 T cudaMemcpy2DAsync
000000000044cd40 T cudaMemcpy2DAsync_ptsz
0000000000431550 T cudaMemcpy2DFromArray
0000000000449b80 T cudaMemcpy2DFromArrayAsync
000000000044c7a0 T cudaMemcpy2DFromArrayAsync_ptsz
000000000043b530 T cudaMemcpy2DFromArray_ptds
000000000043ba30 T cudaMemcpy2D_ptds
0000000000431a00 T cudaMemcpy2DToArray
000000000044a0c0 T cudaMemcpy2DToArrayAsync
000000000044ca70 T cudaMemcpy2DToArrayAsync_ptsz
000000000043b7b0 T cudaMemcpy2DToArray_ptds
0000000000430e70 T cudaMemcpy3D
00000000004499b0 T cudaMemcpy3DAsync
000000000044d610 T cudaMemcpy3DAsync_ptsz
0000000000430cd0 T cudaMemcpy3DPeer
00000000004497e0 T cudaMemcpy3DPeerAsync
000000000044d440 T cudaMemcpy3DPeerAsync_ptsz
000000000043c460 T cudaMemcpy3DPeer_ptds
000000000043c600 T cudaMemcpy3D_ptds
00000000004312d0 T cudaMemcpyArrayToArray
00000000004396e0 T cudaMemcpyArrayToArray_ptds
000000000044ad20 T cudaMemcpyAsync
000000000044d220 T cudaMemcpyAsync_ptsz
00000000004317d0 T cudaMemcpyFromArray
0000000000449e50 T cudaMemcpyFromArrayAsync
000000000044b4f0 T cudaMemcpyFromArrayAsync_ptsz
0000000000439960 T cudaMemcpyFromArray_ptds
0000000000432110 T cudaMemcpyFromSymbol
000000000044a8a0 T cudaMemcpyFromSymbolAsync
000000000044c320 T cudaMemcpyFromSymbolAsync_ptsz
000000000043ae50 T cudaMemcpyFromSymbol_ptds
000000000043bc90 T cudaMemcpyPeer
000000000044cfe0 T cudaMemcpyPeerAsync
000000000043bea0 T cudaMemcpy_ptds
0000000000431c80 T cudaMemcpyToArray
000000000044a390 T cudaMemcpyToArrayAsync
000000000044b760 T cudaMemcpyToArrayAsync_ptsz
0000000000439b90 T cudaMemcpyToArray_ptds
0000000000432320 T cudaMemcpyToSymbol
000000000044aae0 T cudaMemcpyToSymbolAsync
000000000044c560 T cudaMemcpyToSymbolAsync_ptsz
000000000043b060 T cudaMemcpyToSymbol_ptds
000000000043c2a0 T cudaMemGetInfo
0000000000447ba0 T cudaMemPrefetchAsync
000000000044b9d0 T cudaMemPrefetchAsync_ptsz
0000000000439ff0 T cudaMemRangeGetAttribute
0000000000439dc0 T cudaMemRangeGetAttributes
0000000000430af0 T cudaMemset
00000000004308e0 T cudaMemset2D
00000000004493a0 T cudaMemset2DAsync
000000000044bee0 T cudaMemset2DAsync_ptsz
000000000043aa60 T cudaMemset2D_ptds
0000000000430600 T cudaMemset3D
0000000000449090 T cudaMemset3DAsync
000000000044bbd0 T cudaMemset3DAsync_ptsz
000000000043a780 T cudaMemset3D_ptds
00000000004495e0 T cudaMemsetAsync
000000000044c120 T cudaMemsetAsync_ptsz
000000000043ac70 T cudaMemset_ptds
000000000043eb80 T cudaOccupancyMaxActiveBlocksPerMultiprocessor
000000000043e970 T cudaOccupancyMaxActiveBlocksPerMultiprocessorWithFlags
0000000000442fd0 T cudaPeekAtLastError
0000000000439520 T cudaPointerGetAttributes
000000000040e670 T __cudaPopCallConfiguration
000000000044d9f0 T cudaProfilerInitialize
000000000044dd50 T cudaProfilerStart
000000000044dbd0 T cudaProfilerStop
0000000000405890 T __cudaPushCallConfiguration
0000000000406760 T __cudaRegisterFatBinary
0000000000406730 T __cudaRegisterFatBinaryEnd
00000000004063b0 T __cudaRegisterFunction
0000000000406560 T __cudaRegisterHostVar
00000000004065c0 T __cudaRegisterManagedVar
0000000000406450 T __cudaRegisterSurface
00000000004064d0 T __cudaRegisterTexture
0000000000406660 T __cudaRegisterVar
00000000004360a0 T cudaRuntimeGetVersion
0000000000442240 T cudaSetDevice
0000000000441d50 T cudaSetDeviceFlags
000000000043ef20 T cudaSetDoubleForDevice
000000000043ed80 T cudaSetDoubleForHost
0000000000441ee0 T cudaSetValidDevices
00000000004479a0 T cudaSignalExternalSemaphoresAsync
0000000000445dd0 T cudaSignalExternalSemaphoresAsync_ptsz
0000000000448920 T cudaStreamAddCallback
0000000000447030 T cudaStreamAddCallback_ptsz
0000000000448720 T cudaStreamAttachMemAsync
0000000000446ad0 T cudaStreamAttachMemAsync_ptsz
0000000000447400 T cudaStreamBeginCapture
0000000000446730 T cudaStreamBeginCapture_ptsz
0000000000441a10 T cudaStreamCreate
0000000000441850 T cudaStreamCreateWithFlags
0000000000441670 T cudaStreamCreateWithPriority
0000000000445730 T cudaStreamDestroy
0000000000447230 T cudaStreamEndCapture
0000000000446560 T cudaStreamEndCapture_ptsz
000000000042fbe0 T cudaStreamGetCaptureInfo
00000000004461a0 T cudaStreamGetCaptureInfo_ptsz
000000000042ff80 T cudaStreamGetFlags
00000000004412f0 T cudaStreamGetFlags_ptsz
000000000042fdc0 T cudaStreamGetPriority
00000000004414b0 T cudaStreamGetPriority_ptsz
0000000000446900 T cudaStreamIsCapturing
0000000000446390 T cudaStreamIsCapturing_ptsz
0000000000448ee0 T cudaStreamQuery
0000000000446cd0 T cudaStreamQuery_ptsz
0000000000448570 T cudaStreamSynchronize
0000000000446e80 T cudaStreamSynchronize_ptsz
0000000000448b20 T cudaStreamWaitEvent
0000000000445540 T cudaStreamWaitEvent_ptsz
0000000000441150 T cudaThreadExchangeStreamCaptureMode
0000000000443ae0 T cudaThreadExit
0000000000443440 T cudaThreadGetCacheConfig
00000000004435e0 T cudaThreadGetLimit
00000000004432b0 T cudaThreadSetCacheConfig
00000000004437a0 T cudaThreadSetLimit
0000000000443960 T cudaThreadSynchronize
0000000000437d20 T cudaUnbindTexture
0000000000403662 t __cudaUnregisterBinaryUtil
0000000000406700 T __cudaUnregisterFatBinary
0000000000450920 T cudaVDPAUGetDevice
0000000000450ec0 T cudaVDPAUSetVDPAUDevice
00000000004477a0 T cudaWaitExternalSemaphoresAsync
0000000000445bd0 T cudaWaitExternalSemaphoresAsync_ptsz
00000000004590e0 r CU_ETID_ContextLocalStorageInterface_v0301
00000000004590c0 r CU_ETID_CudartInterface
00000000004590d0 r CU_ETID_ToolsRuntimeCallbackHooks
00000000004592b0 r CU_ETID_ToolsRuntimeCallbacks
00000000004592a0 r CU_ETID_ToolsRuntimeInstance
00000000004590b0 r CU_ETID_ToolsTls
                 U __cxa_atexit@@GLIBC_2.2.5
0000000000674500 D __data_start
0000000000674500 W data_start
00000000004035c0 t deregister_tm_clones
                 U dlclose@@GLIBC_2.2.5
                 U dlerror@@GLIBC_2.2.5
                 U dlopen@@GLIBC_2.2.5
                 U dlsym@@GLIBC_2.2.5
0000000000403630 t __do_global_dtors_aux
0000000000671438 t __do_global_dtors_aux_fini_array_entry
0000000000458de0 r dontCare.41276
0000000000674508 D __dso_handle
0000000000673db0 d _DYNAMIC
0000000000674558 D _edata
00000000006759a0 B _end
                 U __errno_location@@GLIBC_2.2.5
                 U exit@@GLIBC_2.2.5
0000000000461810 r fatbinData
0000000000461ac8 r fatbinData
                 U fchmod@@GLIBC_2.2.5
                 U fclose@@GLIBC_2.2.5
                 U fcntl@@GLIBC_2.2.5
                 U fdopen@@GLIBC_2.2.5
                 U feof@@GLIBC_2.2.5
                 U ferror@@GLIBC_2.2.5
                 U fflush@@GLIBC_2.2.5
                 U fgetc@@GLIBC_2.2.5
                 U fgets@@GLIBC_2.2.5
                 U fileno@@GLIBC_2.2.5
000000000045818c T _fini
                 U fopen@@GLIBC_2.2.5
                 U fprintf@@GLIBC_2.2.5
                 U fputc@@GLIBC_2.2.5
0000000000403660 t frame_dummy
00000000006713a0 t __frame_dummy_init_array_entry
0000000000470b70 r __FRAME_END__
                 U fread@@GLIBC_2.2.5
                 U free@@GLIBC_2.2.5
                 U fscanf@@GLIBC_2.2.5
                 U fseek@@GLIBC_2.2.5
                 U ftell@@GLIBC_2.2.5
                 U ftruncate@@GLIBC_2.2.5
                 U fwrite@@GLIBC_2.2.5
                 U __fxstat@@GLIBC_2.2.5
                 U getcwd@@GLIBC_2.2.5
                 U __getdelim@@GLIBC_2.2.5
                 U getegid@@GLIBC_2.2.5
                 U getenv@@GLIBC_2.2.5
                 U geteuid@@GLIBC_2.2.5
                 U gethostname@@GLIBC_2.2.5
                 U get_nprocs@@GLIBC_2.2.5
                 U getpid@@GLIBC_2.2.5
                 U gettimeofday@@GLIBC_2.2.5
                 U getuid@@GLIBC_2.2.5
0000000000419660 t _GLOBAL__I.00150__ZN6cudart12__fun_cuInitE
000000000042fbd0 t _GLOBAL__I_cudaDeviceReset
000000000042f9e0 t _GLOBAL__I___cudaGetExportTableInternal
000000000044dee0 t _GLOBAL__I_cudaGLGetDevices
000000000044f260 t _GLOBAL__I_cudaGraphicsEGLRegisterImage
000000000044d9e0 t _GLOBAL__I_cudaProfilerInitialize
0000000000450910 t _GLOBAL__I_cudaVDPAUGetDevice
000000000042b440 t _GLOBAL__I__ZN6cudart11arrayHelper34getChannelFormatDescFromDriverDescEP21cudaChannelFormatDescPmS3_S3_PK26CUDA_ARRAY3D_DESCRIPTOR_st
000000000041c2a0 t _GLOBAL__I__ZN6cudart11threadState10initializeEv
000000000042d390 t _GLOBAL__I__ZN6cudart12driverHelper17getCurrentContextEPP8CUctx_st
0000000000419650 t _GLOBAL__I__ZN6cudart12__fun_cuInitE
0000000000410100 t _GLOBAL__I__ZN6cudart14getCudartErrorE14cudaError_enum
000000000042f970 t _GLOBAL__I__ZN6cudart14getThreadStateEPPNS_11threadStateE
00000000004271c0 t _GLOBAL__I__ZN6cudart19contextStateManager6createEPPS0_PNS_11globalStateEPNS_9deviceMgrE
000000000042fb10 t _GLOBAL__I__ZN6cudart26g_etblToolsRuntimeInstanceE
000000000042fbb0 t _GLOBAL__I__ZN6cudart27g_etblToolsRuntimeCallbacksE
000000000041cc00 t _GLOBAL__I__ZN6cudart6moduleC2EPNS_12contextStateEP8CUmod_st14cudaError_enum
0000000000674000 d _GLOBAL_OFFSET_TABLE_
00000000004047a4 t _GLOBAL__sub_I__Z12ConstantInitPfif
                 w __gmon_start__
0000000000463cd8 r __GNU_EH_FRAME_HDR
                 U __gxx_personality_v0@@CXXABI_1.3
0000000000402b78 T _init
0000000000671438 t __init_array_end
0000000000671398 t __init_array_start
00000000004581a0 R _IO_stdin_used
                 w _ITM_deregisterTMCloneTable
                 w _ITM_registerTMCloneTable
                 U kill@@GLIBC_2.2.5
0000000000458150 T __libc_csu_fini
00000000004580e0 T __libc_csu_init
                 U __libc_start_main@@GLIBC_2.2.5
                 U listen@@GLIBC_2.2.5
                 U localtime_r@@GLIBC_2.2.5
                 U lseek@@GLIBC_2.2.5
                 U madvise@@GLIBC_2.2.5
0000000000404005 T main
                 U malloc@@GLIBC_2.2.5
                 U memcpy@@GLIBC_2.14
                 U memset@@GLIBC_2.2.5
                 U mkdir@@GLIBC_2.2.5
                 U mkfifo@@GLIBC_2.2.5
                 U mmap@@GLIBC_2.2.5
                 U mprotect@@GLIBC_2.2.5
                 U munmap@@GLIBC_2.2.5
                 U nanosleep@@GLIBC_2.2.5
                 U nftw@@GLIBC_2.3.3
                 U opendir@@GLIBC_2.2.5
                 U open@@GLIBC_2.2.5
                 U pipe@@GLIBC_2.2.5
                 U poll@@GLIBC_2.2.5
                 U printf@@GLIBC_2.2.5
                 U pthread_condattr_init@@GLIBC_2.2.5
                 U pthread_condattr_setpshared@@GLIBC_2.2.5
                 U pthread_cond_broadcast@@GLIBC_2.3.2
                 U pthread_cond_destroy@@GLIBC_2.3.2
                 U pthread_cond_init@@GLIBC_2.3.2
                 U pthread_cond_signal@@GLIBC_2.3.2
                 U pthread_cond_timedwait@@GLIBC_2.3.2
                 U pthread_cond_wait@@GLIBC_2.3.2
                 U pthread_create@@GLIBC_2.2.5
                 U pthread_detach@@GLIBC_2.2.5
                 U pthread_getspecific@@GLIBC_2.2.5
                 U pthread_join@@GLIBC_2.2.5
                 U pthread_key_create@@GLIBC_2.2.5
                 U pthread_key_delete@@GLIBC_2.2.5
                 U pthread_kill@@GLIBC_2.2.5
                 U pthread_mutexattr_destroy@@GLIBC_2.2.5
                 U pthread_mutexattr_init@@GLIBC_2.2.5
                 U pthread_mutexattr_setpshared@@GLIBC_2.2.5
                 U pthread_mutexattr_settype@@GLIBC_2.2.5
                 U pthread_mutex_destroy@@GLIBC_2.2.5
                 U pthread_mutex_init@@GLIBC_2.2.5
                 U pthread_mutex_lock@@GLIBC_2.2.5
                 U pthread_mutex_trylock@@GLIBC_2.2.5
                 U pthread_mutex_unlock@@GLIBC_2.2.5
                 U pthread_once@@GLIBC_2.2.5
                 U pthread_rwlockattr_init@@GLIBC_2.2.5
                 U pthread_rwlockattr_setpshared@@GLIBC_2.2.5
                 U pthread_rwlock_destroy@@GLIBC_2.2.5
                 U pthread_rwlock_init@@GLIBC_2.2.5
                 U pthread_rwlock_rdlock@@GLIBC_2.2.5
                 U pthread_rwlock_tryrdlock@@GLIBC_2.2.5
                 U pthread_rwlock_trywrlock@@GLIBC_2.2.5
                 U pthread_rwlock_unlock@@GLIBC_2.2.5
                 U pthread_rwlock_wrlock@@GLIBC_2.2.5
                 U pthread_self@@GLIBC_2.2.5
                 U pthread_setspecific@@GLIBC_2.2.5
                 U puts@@GLIBC_2.2.5
                 U readdir@@GLIBC_2.2.5
                 U read@@GLIBC_2.2.5
                 U realloc@@GLIBC_2.2.5
                 U realpath@@GLIBC_2.3
                 U recvmsg@@GLIBC_2.2.5
00000000004035f0 t register_tm_clones
                 U remove@@GLIBC_2.2.5
                 U rmdir@@GLIBC_2.2.5
                 U sched_yield@@GLIBC_2.2.5
                 U sem_destroy@@GLIBC_2.2.5
                 U sem_init@@GLIBC_2.2.5
                 U sem_post@@GLIBC_2.2.5
                 U sem_timedwait@@GLIBC_2.2.5
                 U sem_trywait@@GLIBC_2.2.5
                 U sem_wait@@GLIBC_2.2.5
                 U sendmsg@@GLIBC_2.2.5
                 U setenv@@GLIBC_2.2.5
                 U setsockopt@@GLIBC_2.2.5
                 U shmat@@GLIBC_2.2.5
                 U shmctl@@GLIBC_2.2.5
                 U shmdt@@GLIBC_2.2.5
                 U shmget@@GLIBC_2.2.5
                 U shm_open@@GLIBC_2.2.5
                 U shm_unlink@@GLIBC_2.2.5
                 U snprintf@@GLIBC_2.2.5
                 U socket@@GLIBC_2.2.5
                 U socketpair@@GLIBC_2.2.5
                 U sscanf@@GLIBC_2.2.5
                 U __stack_chk_fail@@GLIBC_2.4
0000000000403590 T _start
0000000000674560 B stderr@@GLIBC_2.2.5
                 U strchr@@GLIBC_2.2.5
                 U strcpy@@GLIBC_2.2.5
                 U strdup@@GLIBC_2.2.5
                 U strlen@@GLIBC_2.2.5
                 U strncasecmp@@GLIBC_2.2.5
                 U strncat@@GLIBC_2.2.5
                 U strncmp@@GLIBC_2.2.5
                 U strncpy@@GLIBC_2.2.5
                 U strstr@@GLIBC_2.2.5
                 U __strtol_internal@@GLIBC_2.2.5
                 U __strtoul_internal@@GLIBC_2.2.5
                 U syscall@@GLIBC_2.2.5
                 U sysconf@@GLIBC_2.2.5
                 U sysinfo@@GLIBC_2.2.5
000000000041c120 t __tcf_0
0000000000453560 t __tcf_0
0000000000456bf0 t __tcf_0
0000000000453590 t __tcf_1
00000000004535c0 t __tcf_2
00000000004535f0 t __tcf_3
0000000000453530 t __tcf_4
                 U __tls_get_addr@@GLIBC_2.3
0000000000674558 D __TMC_END__
                 U uname@@GLIBC_2.2.5
                 U unlink@@GLIBC_2.2.5
                 U _Unwind_Resume@@GCC_3.0
                 U usleep@@GLIBC_2.2.5
                 U vsnprintf@@GLIBC_2.2.5
                 U write@@GLIBC_2.2.5
                 U __xstat@@GLIBC_2.2.5
00000000004036a5 T _Z12ConstantInitPfif
0000000000404c0f W _Z13gpuDeviceIniti
00000000004051cc W _Z13MatrixMulCUDAILi16EEvPfS0_S0_ii
0000000000405209 W _Z13MatrixMulCUDAILi32EEvPfS0_S0_ii
0000000000404ff0 W _Z14findCudaDeviceiPPKc
00000000004036ea T _Z14MatrixMultiplyiPPciRK4dim3S3_
0000000000404859 W _Z16checkCmdLineFlagiPPKcS0_
0000000000404712 t _Z16cudaLaunchKernelIcE9cudaErrorPKT_4dim3S4_PPvmP11CUstream_st
0000000000404a7f W _Z19_ConvertSMVer2Coresii
0000000000404954 W _Z21getCmdLineArgumentIntiPPKcS0_
0000000000404806 W _Z21stringRemoveDelimitercPKc
0000000000405710 t _Z23cudaguidstructstampinitv
0000000000404e06 W _Z23gpuGetMaxGflopsDeviceIdv
0000000000404428 t _Z36__wrapper__device_stub_MatrixMulCUDAILi16EEvRPfS1_S1_RiS2_
00000000004045ee t _Z36__wrapper__device_stub_MatrixMulCUDAILi32EEvRPfS1_S1_RiS2_
0000000000404766 t _Z41__static_initialization_and_destruction_0ii
00000000004057e0 t _Z41__static_initialization_and_destruction_0ii
0000000000419600 t _Z41__static_initialization_and_destruction_0ii
000000000041c290 t _Z41__static_initialization_and_destruction_0ii
000000000041cbf0 t _Z41__static_initialization_and_destruction_0ii
00000000004271b0 t _Z41__static_initialization_and_destruction_0ii
000000000042b430 t _Z41__static_initialization_and_destruction_0ii
000000000042d380 t _Z41__static_initialization_and_destruction_0ii
000000000042f960 t _Z41__static_initialization_and_destruction_0ii
000000000042f9d0 t _Z41__static_initialization_and_destruction_0ii
000000000042fb00 t _Z41__static_initialization_and_destruction_0ii
000000000042fba0 t _Z41__static_initialization_and_destruction_0ii
000000000042fbc0 t _Z41__static_initialization_and_destruction_0ii
000000000044d9d0 t _Z41__static_initialization_and_destruction_0ii
000000000044ded0 t _Z41__static_initialization_and_destruction_0ii
000000000044f250 t _Z41__static_initialization_and_destruction_0ii
0000000000450900 t _Z41__static_initialization_and_destruction_0ii
000000000040515d W _Z5checkI9cudaErrorEvT_PKcS3_i
0000000000675988 b _ZGVZN6cudart13cuosPosixInitEvE7__pipe2
00000000006758e8 b _ZGVZN6cudart8cuosInitEvE14__sched_getcpu
00000000006758e0 b _ZGVZN6cudart8cuosInitEvE24__pthread_getaffinity_np
00000000006758d8 b _ZGVZN6cudart8cuosInitEvE24__pthread_setaffinity_np
00000000006758d0 b _ZGVZN6cudart8cuosInitEvE7__pipe2
00000000006758c8 b _ZGVZN6cudart8cuosInitEvE9__accept4
0000000000463c98 r _ZL15__fatDeviceText
0000000000463cb0 r _ZL15__fatDeviceText
0000000000463cc8 r _ZL15__module_id_str
000000000040368e t _ZL17_cudaGetErrorEnum9cudaError
0000000000674570 b _ZL20__cudaFatCubinHandle
00000000006745a0 b _ZL20__cudaFatCubinHandle
0000000000674578 b _ZL22__cudaPrelinkedFatbins
000000000040425d t _ZL22____nv_dummy_param_refPv
0000000000674580 b _ZL22__nv_inited_managed_rt
00000000004046c5 t _ZL24__sti____cudaRegisterAllv
0000000000404273 t _ZL26__cudaUnregisterBinaryUtilv
0000000000404639 t _ZL31__nv_cudaEntityRegisterCallbackPPv
0000000000674588 b _ZL32__nv_fatbinhandle_for_managed_rt
0000000000404293 t _ZL32__nv_init_managed_rt_with_modulePPv
0000000000403678 t _ZL37__nv_save_fatbinhandle_for_managed_rtPPv
00000000004042ad t _ZL49__device_stub__Z13MatrixMulCUDAILi16EEvPfS0_S0_iiPfS_S_ii
0000000000404473 t _ZL49__device_stub__Z13MatrixMulCUDAILi32EEvPfS0_S0_iiPfS_S_ii
0000000000000000 b _ZN102_GLOBAL__N__dvs_p4_build_sw_rel_gpgpu_toolkit_r10.1_cuda_tools_cudart_cudart_tls.cpp_00000000_8E7985783tlsE
0000000000673d80 d _ZN103_GLOBAL__N__dvs_p4_build_sw_rel_gpgpu_toolkit_r10.1_cuda_tools_cudart_cudart_etbl.cpp_00000000_5C6044A47etblMapE
000000000042fac0 t _ZN126_GLOBAL__N__dvs_p4_build_sw_rel_gpgpu_toolkit_r10.1_cuda_tools_cudart_cudart_etbl_tools_runtime_instance.cpp_00000000_CB5DA4D113etiGetVersionEPi
000000000042fae0 t _ZN126_GLOBAL__N__dvs_p4_build_sw_rel_gpgpu_toolkit_r10.1_cuda_tools_cudart_cudart_etbl_tools_runtime_instance.cpp_00000000_CB5DA4D117etiGetLinkageTypeEPi
000000000042fb20 t _ZN126_GLOBAL__N__dvs_p4_build_sw_rel_gpgpu_toolkit_r10.1_cuda_tools_cudart_cudart_etbl_tools_runtime_instance.cpp_00000000_CB5DA4D124etiGetRuntimeErrorStringEjPPKcS2_
000000000042fb70 t _ZN127_GLOBAL__N__dvs_p4_build_sw_rel_gpgpu_toolkit_r10.1_cuda_tools_cudart_cudart_etbl_tools_runtime_callbacks.cpp_00000000_1944650D32etiGetApiFunctionDescriptorTableEPiPPK35CUtoolsRuntimeFunctionDescriptor_st
00000000004581b4 r _ZN21helper_image_internalL13PGMHeaderSizeE
00000000004047ba W _ZN4dim3C1Ejjj
00000000004047ba W _ZN4dim3C2Ejjj
000000000041cba0 T _ZN6cudart10configData3setE4dim3S1_mP11CUstream_st
00000000004555f0 T _ZN6cudart10cuosCallocEmm
0000000000455520 T _ZN6cudart10cuosFcloseEP8_IO_FILE
00000000004554f0 T _ZN6cudart10cuosFwriteEP8_IO_FILEPKvm
0000000000455d60 T _ZN6cudart10cuosGetcwdEPcm
00000000004566e0 T _ZN6cudart10cuosGetEnvEPKcPcm
0000000000455610 T _ZN6cudart10cuosMallocEm
0000000000455db0 t _ZN6cudart10cuosRmNodeEPKcPK4statiP3FTW
0000000000456740 T _ZN6cudart10cuosSetEnvEPKcS1_
0000000000455a30 T _ZN6cudart10cuosShmMapEPvm
0000000000457db0 T _ZN6cudart10cuosStrdupEPKc
000000000045b7ea r _ZN6cudart10FD_CONTROLE
000000000042cad0 T _ZN6cudart11arrayHelper10copyToHostEPK9cudaArraymmPcmP11CUstream_stbb
000000000042b480 T _ZN6cudart11arrayHelper11copyToArrayEPK9cudaArraymmPS1_mmmb
000000000042af50 T _ZN6cudart11arrayHelper11getDescInfoEPK21cudaChannelFormatDescRiR19CUarray_format_enum
000000000042ce00 T _ZN6cudart11arrayHelper11writeDstLocEPK9cudaArrayR16CUDA_MEMCPY3D_st7cudaPos
000000000042cfc0 T _ZN6cudart11arrayHelper11writeExtentEPK9cudaArrayR16CUDA_MEMCPY3D_st10cudaExtent
000000000042cee0 T _ZN6cudart11arrayHelper11writeSrcLocEPK9cudaArrayR16CUDA_MEMCPY3D_st7cudaPos
000000000042c460 T _ZN6cudart11arrayHelper12copyFromHostEPK9cudaArraymmPKcmP11CUstream_stbb
000000000042c790 T _ZN6cudart11arrayHelper12copyToDeviceE17CUmemorytype_enumPK9cudaArraymmPcmmP11CUstream_stbb
000000000042bf80 T _ZN6cudart11arrayHelper12copyToHost2DEPK9cudaArraymmPcmmmP11CUstream_stbb
000000000042b450 T _ZN6cudart11arrayHelper12setupTextureEPK18cudaMipmappedArrayP11CUtexref_st
000000000042b820 T _ZN6cudart11arrayHelper12setupTextureEPK9cudaArrayP11CUtexref_st
000000000042b780 T _ZN6cudart11arrayHelper13bindToSurfaceEPK9cudaArrayP12CUsurfref_st
000000000042b8c0 T _ZN6cudart11arrayHelper13copyToArray2DEPK9cudaArraymmPS1_mmmmb
000000000042b5a0 t _ZN6cudart11arrayHelper13getLocalStateEPNS0_19cudaArrayLocalStateEPK9cudaArray
000000000042c130 T _ZN6cudart11arrayHelper14copyFromDeviceE17CUmemorytype_enumPK9cudaArraymmPKcmmP11CUstream_stbb
000000000042bc10 T _ZN6cudart11arrayHelper14copyFromHost2DEPK9cudaArraymmPKcmmmP11CUstream_stbb
000000000042bdc0 T _ZN6cudart11arrayHelper14copyToDevice2DE17CUmemorytype_enumPK9cudaArraymmPcmmmmP11CUstream_stbb
000000000042d120 T _ZN6cudart11arrayHelper14getChannelDescEPK9cudaArrayP21cudaChannelFormatDesc
000000000042af40 T _ZN6cudart11arrayHelper14getDriverArrayEP9cudaArray
000000000042d250 T _ZN6cudart11arrayHelper14getElementSizeEPmP9cudaArray
000000000042b3d0 T _ZN6cudart11arrayHelper15bytesPerElementEPmi19CUarray_format_enum
000000000042ba50 T _ZN6cudart11arrayHelper16copyFromDevice2DE17CUmemorytype_enumPK9cudaArraymmPKcmmmmP11CUstream_stbb
000000000042ae20 T _ZN6cudart11arrayHelper34getChannelFormatDescFromDriverDescEP21cudaChannelFormatDescPmS3_S3_PK26CUDA_ARRAY3D_DESCRIPTOR_st
000000000042d090 T _ZN6cudart11arrayHelper9getExtentEPK9cudaArrayP10cudaExtent
000000000042d2d0 T _ZN6cudart11arrayHelper9getFormatEPK18cudaMipmappedArrayRiR19CUarray_format_enum
000000000042d1b0 T _ZN6cudart11arrayHelper9getFormatEPK9cudaArrayRiR19CUarray_format_enum
000000000040cb00 T _ZN6cudart11cudaApiFreeEPv
000000000041cb80 T _ZN6cudart11cudaSurface10setStorageEb
000000000041ce60 T _ZN6cudart11cudaSurface4bindEPK9cudaArrayPK21cudaChannelFormatDesc
000000000041cb70 T _ZN6cudart11cudaSurfaceC1EPK16surfaceReferenceibP12CUsurfref_st
000000000041cb60 T _ZN6cudart11cudaSurfaceC2EPK16surfaceReferenceibP12CUsurfref_st
000000000041caf0 T _ZN6cudart11cudaTexture10setStorageEb
000000000041cb10 T _ZN6cudart11cudaTexture6unbindEv
000000000041cac0 T _ZN6cudart11cudaTextureC1EPK16textureReferenceibbP11CUtexref_stPNS_12contextStateE
000000000041ca90 T _ZN6cudart11cudaTextureC2EPK16textureReferenceibbP11CUtexref_stPNS_12contextStateE
0000000000456630 T _ZN6cudart11cuosMadviseEPvmj
00000000004555e0 T _ZN6cudart11cuosReallocEPvm
0000000000456ba0 T _ZN6cudart11cuosShmOpenEPKc
0000000000455320 T _ZN6cudart11cuosShmSizeEPKNS_14cuosShmInfo_stE
00000000004564b0 T _ZN6cudart11cuosTlsFreeEj
0000000000453750 t _ZN6cudart11getNumaInfoEv
0000000000414f60 T _ZN6cudart11globalState10loadDriverEv
0000000000415210 T _ZN6cudart11globalState11registerVarEPNS_12globalModuleEPcS3_PKcbmbb
0000000000418ec0 T _ZN6cudart11globalState13destroyModuleEPNS_12globalModuleE
000000000041a320 T _ZN6cudart11globalState15registerHostVarEPNS_12globalModuleEPKcPvm
00000000004150a0 T _ZN6cudart11globalState15registerSurfaceEPNS_12globalModuleEPK16surfaceReferencePPKvPKcib
0000000000415150 T _ZN6cudart11globalState15registerTextureEPNS_12globalModuleEPK16textureReferencePPKvPKcibb
000000000041aa90 T _ZN6cudart11globalState16initializeDriverEv
0000000000419520 T _ZN6cudart11globalState17registerFatBinaryEPPNS_12globalModuleEPv
0000000000418640 T _ZN6cudart11globalState18loadDriverInternalEv
000000000041a3e0 T _ZN6cudart11globalState18registerManagedVarEPNS_12globalModuleEPPvPcPKcbmbb
0000000000418700 T _ZN6cudart11globalState19getModuleByVariableEPKv
00000000004195b0 T _ZN6cudart11globalState19unregisterFatBinaryEPNS_12globalModuleE
000000000041bc10 T _ZN6cudart11globalState20registerFatBinaryEndEPNS_12globalModuleE
0000000000414fd0 T _ZN6cudart11globalState21registerEntryFunctionEPNS_12globalModuleEPKcPcS4_iP5uint3S7_P4dim3S9_Pi
0000000000415340 T _ZN6cudart11globalState22getCurrentContextStateEv
00000000004189f0 T _ZN6cudart11globalState24getModuleByEntryFunctionEPKv
000000000041a560 T _ZN6cudart11globalState24initializeDriverInternalEv
0000000000415470 T _ZN6cudart11globalState27initializeDriverEntrypointsEv
0000000000415370 T _ZN6cudart11globalStateC1Ev
00000000004153f0 T _ZN6cudart11globalStateC2Ev
000000000041ab60 T _ZN6cudart11globalStateD1Ev
000000000041b3e0 T _ZN6cudart11globalStateD2Ev
000000000041c1c0 T _ZN6cudart11threadState10initializeEv
000000000041c470 T _ZN6cudart11threadState12getLastErrorEv
000000000041c270 T _ZN6cudart11threadState12setLastErrorE9cudaError
000000000041c880 T _ZN6cudart11threadState14getDeviceToTryEPPNS_6deviceEi
000000000041c280 T _ZN6cudart11threadState15peekAtLastErrorEv
000000000041c490 T _ZN6cudart11threadState15setValidDevicesEPii
000000000041c920 T _ZN6cudart11threadState18getNumDevicesToTryEPi
000000000041d7c0 T _ZN6cudart12contextState10getSurfaceEPPNS_11cudaSurfaceEPK16surfaceReference9cudaError
000000000041d610 T _ZN6cudart12contextState10getTextureEPPNS_11cudaTextureEPK16textureReference9cudaError
000000000041d910 T _ZN6cudart12contextState11bindSurfaceEPK16surfaceReferencePK9cudaArrayPK21cudaChannelFormatDesc
00000000004265f0 T _ZN6cudart12contextState11bindTextureEPK16textureReferencePK18cudaMipmappedArrayPK21cudaChannelFormatDesc
0000000000426880 T _ZN6cudart12contextState11bindTextureEPK16textureReferencePK9cudaArrayPK21cudaChannelFormatDesc
0000000000426b10 T _ZN6cudart12contextState11bindTextureEPmPK16textureReferencePKcPK21cudaChannelFormatDescm
000000000041d3b0 T _ZN6cudart12contextState11getVariableEPPNS_12cudaVariableEPKv9cudaError
0000000000424890 T _ZN6cudart12contextState12applyChangesEv
0000000000426e40 T _ZN6cudart12contextState13bindTexture2DEPmPK16textureReferencePKcPK21cudaChannelFormatDescmmm
0000000000422180 T _ZN6cudart12contextState13createSurfaceERKNS_11surfaceTempEPNS_12globalModuleE
0000000000424f60 T _ZN6cudart12contextState13createTextureERKNS_11textureTempEPNS_12globalModuleE
0000000000421eb0 T _ZN6cudart12contextState13deleteSurfaceEPK16surfaceReference
0000000000421be0 T _ZN6cudart12contextState13deleteTextureEPK16textureReference
000000000041d4a0 T _ZN6cudart12contextState13getSymbolSizeEPmPKv
000000000041dbd0 T _ZN6cudart12contextState13unbindTextureEPNS_11cudaTextureE
0000000000421010 T _ZN6cudart12contextState14createVariableERKNS_12variableTempEPNS_12globalModuleE
0000000000420d40 T _ZN6cudart12contextState14deleteVariableEPKv
000000000041cca0 T _ZN6cudart12contextState15addBoundTextureEPNS_11cudaTextureE
000000000041d950 T _ZN6cudart12contextState16getEntryFunctionEPPNS_17cudaEntryFunctionEPKv9cudaError
000000000041d570 T _ZN6cudart12contextState16getSymbolAddressEPPvPKv
0000000000424070 T _ZN6cudart12contextState16unloadAllModulesEb
000000000041cc10 T _ZN6cudart12contextState18removeBoundTextureEPNS_11cudaTextureE
000000000041d1a0 T _ZN6cudart12contextState18setupBoundTexturesEv
00000000004200d0 T _ZN6cudart12contextState19createEntryFunctionERKNS_17entryFunctionTempEPNS_12globalModuleE
0000000000422d20 T _ZN6cudart12contextState19deleteEntryFunctionEPKv
000000000041d8d0 T _ZN6cudart12contextState19getSurfaceReferenceEPPK16surfaceReferencePKv
000000000041d720 T _ZN6cudart12contextState19getTextureReferenceEPPK16textureReferencePKv
000000000041fc70 T _ZN6cudart12contextState20markChangeModuleLoadEPNS_12globalModuleE
000000000041db90 T _ZN6cudart12contextState22getDriverEntryFunctionEPP9CUfunc_stPKv
000000000041f0f0 T _ZN6cudart12contextState22markChangeModuleUnloadEPNS_12globalModuleE
000000000041dc20 T _ZN6cudart12contextState22unbindTextureReferenceEPK16textureReference
000000000041da60 T _ZN6cudart12contextState23prepareToLaunchFunctionEPP9CUfunc_stPKNS_10configDataEPKv
000000000041d760 T _ZN6cudart12contextState25getTextureAlignmentOffsetEPmPK16textureReference
0000000000425b20 T _ZN6cudart12contextState9loadCubinEPbPNS_12globalModuleE
000000000041d2a0 T _ZN6cudart12contextStateC1EPNS_6deviceEP8CUctx_st
000000000041cd50 T _ZN6cudart12contextStateC2EPNS_6deviceEP8CUctx_st
000000000041e6c0 T _ZN6cudart12contextStateD1Ev
000000000041dc90 T _ZN6cudart12contextStateD2Ev
000000000045b7e1 r _ZN6cudart12CRED_CONTROLE
000000000041ca80 T _ZN6cudart12cudaVariable10setStorageEb
000000000041ca70 T _ZN6cudart12cudaVariableC1EPvP8CUmod_stPKcb
000000000041ca60 T _ZN6cudart12cudaVariableC2EPvP8CUmod_stPKcb
0000000000456050 T _ZN6cudart12cuosCondWaitEP14pthread_cond_tP15pthread_mutex_tj
0000000000452be0 T _ZN6cudart12cuosGetTimerEPNS_9cuostimerE
0000000000456c40 T _ZN6cudart12cuosLockFileEP8_IO_FILEj
00000000004556f0 T _ZN6cudart12cuosPipeReadEPNS_11CUOSpipe_stEPvm
0000000000455a10 T _ZN6cudart12cuosShmUnmapEPv
00000000004564c0 T _ZN6cudart12cuosTlsAllocEPFvPvE
000000000042d9b0 T _ZN6cudart12driverHelper10mallocHostEmPPvj
000000000042e290 T _ZN6cudart12driverHelper11mallocArrayEPP9cudaArrayPK21cudaChannelFormatDescmmmij
000000000042d940 T _ZN6cudart12driverHelper11mallocPitchEmmmPPvPm
000000000042f310 T _ZN6cudart12driverHelper11memcpy2DPtrEPcmPKcmmm14cudaMemcpyKindP11CUstream_stbb
000000000042d3a0 T _ZN6cudart12driverHelper11memset2DPtrEPcmimmP11CUstream_stbb
000000000042d4b0 T _ZN6cudart12driverHelper11memset3DPtrE14cudaPitchedPtri10cudaExtentP11CUstream_stbb
000000000042da00 T _ZN6cudart12driverHelper12hostGetFlagsEPjPv
000000000042efc0 T _ZN6cudart12driverHelper13memcpyToArrayEP9cudaArraymmPKcm14cudaMemcpyKindP11CUstream_stbb
000000000042d8a0 T _ZN6cudart12driverHelper14driverMemcpy3DEP16CUDA_MEMCPY3D_stP11CUstream_stbb
000000000042f820 T _ZN6cudart12driverHelper14memcpyDispatchEPvPKvm14cudaMemcpyKindb
000000000042ee60 T _ZN6cudart12driverHelper15memcpy2DToArrayEP9cudaArraymmPKcmmm14cudaMemcpyKindP11CUstream_stbb
000000000042ed80 T _ZN6cudart12driverHelper15memcpyFromArrayEPcPK9cudaArraymmm14cudaMemcpyKindP11CUstream_stbb
000000000042da60 T _ZN6cudart12driverHelper16mallocManagedPtrEmjPPv
000000000042dae0 T _ZN6cudart12driverHelper17getCurrentContextEPP8CUctx_st
000000000042ec20 T _ZN6cudart12driverHelper17memcpy2DFromArrayEPcmPK9cudaArraymmmm14cudaMemcpyKindP11CUstream_stbb
000000000042d830 T _ZN6cudart12driverHelper18driverMemcpy3DPeerEP21CUDA_MEMCPY3D_PEER_stP11CUstream_stbb
000000000042ebd0 T _ZN6cudart12driverHelper18memcpyArrayToArrayEP9cudaArraymmPKS1_mmm14cudaMemcpyKindb
000000000042f6d0 T _ZN6cudart12driverHelper19memcpyAsyncDispatchEPvPKvm14cudaMemcpyKindP11CUstream_stb
000000000042da30 T _ZN6cudart12driverHelper20hostGetDevicePointerEPvPS1_j
000000000042e0d0 T _ZN6cudart12driverHelper20mallocMipmappedArrayEPP18cudaMipmappedArrayPK21cudaChannelFormatDescmmmjj
000000000042eb50 T _ZN6cudart12driverHelper20memcpy2DArrayToArrayEP9cudaArraymmPKS1_mmmm14cudaMemcpyKindb
000000000042e810 T _ZN6cudart12driverHelper23toCudartMemCopy3DParamsEPK16CUDA_MEMCPY3D_stP17cudaMemcpy3DParms
000000000042e450 T _ZN6cudart12driverHelper23toDriverMemCopy3DParamsEPK17cudaMemcpy3DParmsPNS_6deviceES5_P16CUDA_MEMCPY3D_st
000000000042ddb0 T _ZN6cudart12driverHelper27getDriverResDescFromResDescEP21CUDA_RESOURCE_DESC_stPK16cudaResourceDescP20CUDA_TEXTURE_DESC_stPK15cudaTextureDescP26CUDA_RESOURCE_VIEW_DESC_stPK20cudaResourceViewDesc
000000000042db10 T _ZN6cudart12driverHelper27getResDescFromDriverResDescEP16cudaResourceDescPK21CUDA_RESOURCE_DESC_stP15cudaTextureDescPK20CUDA_TEXTURE_DESC_stP20cudaResourceViewDescPK26CUDA_RESOURCE_VIEW_DESC_st
000000000042d910 T _ZN6cudart12driverHelper8freeHostEPv
000000000042f0a0 T _ZN6cudart12driverHelper8memcpy3DEPK17cudaMemcpy3DParmsbPNS_6deviceES5_P11CUstream_stbb
000000000042da90 T _ZN6cudart12driverHelper9mallocPtrEmPPv
000000000042d430 T _ZN6cudart12driverHelper9memsetPtrEPcimP11CUstream_stbb
00000000006745e0 B _ZN6cudart12__fun_cuInitE
0000000000418ce0 T _ZN6cudart12globalModule15loadIntoContextEPNS_12contextStateE
0000000000414310 T _ZN6cudart12globalModuleC1EPv
0000000000414680 T _ZN6cudart12globalModuleC2EPv
0000000000409020 T _ZN6cudart13cudaApiMallocEPPvm
0000000000411130 T _ZN6cudart13cudaApiMemcpyEPvPKvm14cudaMemcpyKind
0000000000411320 T _ZN6cudart13cudaApiMemsetEPvim
00000000004510a0 T _ZN6cudart13cuosEventPollEPNS_9cuosEventEPj
0000000000452620 T _ZN6cudart13cuosIpcCreateEPc
0000000000455750 T _ZN6cudart13cuosPipeCloseEPNS_11CUOSpipe_stE
0000000000455880 T _ZN6cudart13cuosPipeWriteEPNS_11CUOSpipe_stEPKvm
00000000004567f0 T _ZN6cudart13cuosPosixInitEv
0000000000455fe0 T _ZN6cudart13cuosProcessIdEv
0000000000455a80 T _ZN6cudart13cuosShmCreateEPKcm
00000000004576d0 T _ZN6cudart13cuosShmOpenExEPvPNS_13cuosShmKey_stEmPPNS_16cuosShmInfoEx_stE
0000000000675948 b _ZN6cudart13cuosShmSerialE
000000000045b7f3 r _ZN6cudart13HELLO_CONTROLE
0000000000675898 b _ZN6cudart13_sched_getcpuE
0000000000457460 T _ZN6cudart14cuosCondCreateEP14pthread_cond_t
0000000000456030 T _ZN6cudart14cuosCondSignalEP14pthread_cond_t
0000000000453620 T _ZN6cudart14cuosEventClearEPNS_9cuosEventE
0000000000452bb0 T _ZN6cudart14cuosGetCpuTimeEv
0000000000456c80 T _ZN6cudart14cuosInitRWLockEPPv
00000000004520d0 T _ZN6cudart14cuosIpcDestroyEPc
0000000000452c40 T _ZN6cudart14cuosResetTimerEPNS_9cuostimerE
00000000004574c0 T _ZN6cudart14cuosShmCloseExEPNS_16cuosShmInfoEx_stEjj
0000000000455a60 T _ZN6cudart14cuosShmDestroyEPv
00000000004559b0 T _ZN6cudart14cuosShmIsOwnerEPNS_16cuosShmInfoEx_stEPi
0000000000451db0 T _ZN6cudart14cuosSocketReadEPNS_10CUOSsocketEPvm
0000000000451750 T _ZN6cudart14cuosSocketRecvEPNS_10CUOSsocketEPNS_13CUOSsocketMsgE
0000000000453100 T _ZN6cudart14cuosSocketSendEPNS_10CUOSsocketEPNS_13CUOSsocketMsgE
0000000000456d10 T _ZN6cudart14cuosThreadJoinEPNS_13CUOSthread_stEPi
0000000000455ad0 T _ZN6cudart14cuosUnlockFileEP8_IO_FILE
0000000000674c00 B _ZN6cudart14__fun_cuGLInitE
00000000006747b0 B _ZN6cudart14__fun_cuMemcpyE
0000000000405250 T _ZN6cudart14getCudartErrorE14cudaError_enum
0000000000414f30 T _ZN6cudart14getGlobalStateEv
000000000042f980 T _ZN6cudart14getThreadStateEPPNS_11threadStateE
00000000004152f0 T _ZN6cudart14GlobalStateRef9tryRetainEv
0000000000414390 T _ZN6cudart14GlobalStateRefC1Ev
0000000000414380 T _ZN6cudart14GlobalStateRefC2Ev
000000000041c170 T _ZN6cudart14GlobalStateRefD1Ev
000000000041c0d0 T _ZN6cudart14GlobalStateRefD2Ev
0000000000674f00 b _ZN6cudart15criticalSectionE
0000000000408c10 T _ZN6cudart15cudaApiFreeHostEPv
0000000000408c70 T _ZN6cudart15cudaApiMalloc3DEP14cudaPitchedPtr10cudaExtent
0000000000410e10 T _ZN6cudart15cudaApiMemcpy2DEPvmPKvmmm14cudaMemcpyKind
0000000000411440 T _ZN6cudart15cudaApiMemcpy3DEPK17cudaMemcpy3DParms
00000000004076c0 T _ZN6cudart15cudaApiMemset2DEPvmimm
00000000004074a0 T _ZN6cudart15cudaApiMemset3DE14cudaPitchedPtri10cudaExtent
0000000000455ff0 T _ZN6cudart15cuosCondDestroyEP14pthread_cond_t
0000000000452550 T _ZN6cudart15cuosEventCreateEPNS_9cuosEventE
00000000004536b0 T _ZN6cudart15cuosEventSignalEPNS_9cuosEventE
00000000004565f0 T _ZN6cudart15cuosFreeLibraryEPv
0000000000455d30 T _ZN6cudart15cuosGetFileSizeEPKc
0000000000455590 T _ZN6cudart15cuosGetHostnameEPcm
0000000000451510 T _ZN6cudart15cuosGetPageSizeEv
0000000000452640 T _ZN6cudart15cuosIpcMakeNameEPcPKcm
0000000000456610 T _ZN6cudart15cuosLoadLibraryEPKc
00000000004578d0 T _ZN6cudart15cuosShmCreateExEPvPNS_13cuosShmKey_stEmPPNS_16cuosShmInfoEx_stE
0000000000451710 T _ZN6cudart15cuosSocketCloseEPNS_10CUOSsocketE
0000000000453490 T _ZN6cudart15cuosSocketWriteEPNS_10CUOSsocketEPKvm
0000000000455f90 T _ZN6cudart15cuosThreadYieldEv
00000000004564a0 T _ZN6cudart15cuosTlsGetValueEj
0000000000456480 T _ZN6cudart15cuosTlsSetValueEjPv
00000000004566b0 T _ZN6cudart15cuosVirtualFreeEPvmj
0000000000674f28 b _ZN6cudart15__funtmp_cuInitE
0000000000451190 t _ZN6cudart15getMaskFromFileEPKcS1_PPcPm
0000000000413100 t _ZN6cudart15__unimpl_cuInitEj
000000000040c8d0 T _ZN6cudart16cudaApiFreeArrayEP9cudaArray
00000000004097b0 T _ZN6cudart16cudaApiGetDeviceEPi
0000000000408f10 T _ZN6cudart16cudaApiHostAllocEPPvmj
000000000040c5a0 T _ZN6cudart16cudaApiMemAdviseEPKvm16cudaMemoryAdvisei
000000000040f140 T _ZN6cudart16cudaApiSetDeviceEi
0000000000674548 D _ZN6cudart16cudartErrorTableE
00000000004516b0 T _ZN6cudart16cuosEventDestroyEPNS_9cuosEventE
0000000000456750 T _ZN6cudart16cuosGetLocalTimeEPNS_15cuosLocalTime_sE
0000000000456280 T _ZN6cudart16cuosInitRWLockExEPPvS0_m
0000000000455340 T _ZN6cudart16cuosMemoryRetainEv
00000000006758b0 b _ZN6cudart16cuosMinProcessVaE
0000000000455d20 T _ZN6cudart16cuosReadLockFileEP8_IO_FILEj
0000000000452d60 T _ZN6cudart16cuosSocketRecvFdEPNS_10CUOSsocketEPi
00000000004533f0 T _ZN6cudart16cuosSocketSendFdEPNS_10CUOSsocketEi
0000000000455f70 T _ZN6cudart16cuosThreadCreateEPPNS_13CUOSthread_stEPFiPvES3_
0000000000455e60 T _ZN6cudart16cuosThreadDetachEPNS_13CUOSthread_stE
0000000000457cd0 T _ZN6cudart16cuosVirtualAllocEPvmjj
000000000041a4c0 t _ZN6cudart17createGlobalStateEv
000000000040d300 T _ZN6cudart17cudaApiEventQueryEP10CUevent_st
000000000040a020 T _ZN6cudart17cudaApiGraphCloneEPP10CUgraph_stS1_
0000000000408fa0 T _ZN6cudart17cudaApiMallocHostEPPvm
000000000040fdb0 T _ZN6cudart17cudaApiMemcpyPeerEPviPKvim
000000000040c750 T _ZN6cudart17cudaApiMemGetInfoEPmS0_
000000000040f2b0 T _ZN6cudart17cudaApiThreadExitEv
0000000000674550 D _ZN6cudart17cudartErrorValuesE
0000000000456010 T _ZN6cudart17cuosCondBroadcastEP14pthread_cond_t
0000000000456c20 T _ZN6cudart17cuosDestroyRWLockEPPv
00000000004510b0 T _ZN6cudart17cuosEventGetOsPtrEPNS_9cuosEventEjj
0000000000452910 T _ZN6cudart17cuosInterlockedOrEPVjj
00000000004564f0 T _ZN6cudart17cuosKernelIs64BitEv
0000000000455350 T _ZN6cudart17cuosMemoryReleaseEv
0000000000454430 T _ZN6cudart17cuosNumaMovePagesEmPPvPKiPi
0000000000452290 T _ZN6cudart17cuosSemaphoreWaitEP5sem_tj
0000000000455360 T _ZN6cudart17cuosSetThreadNameEPNS_13CUOSthread_stEPKc
0000000000457e20 T _ZN6cudart17cuosSprintfMallocEPKcz
0000000000455300 T _ZN6cudart17cuosThreadIdEqualEmm
0000000000455d10 T _ZN6cudart17cuosWriteLockFileEP8_IO_FILEj
0000000000674680 B _ZN6cudart17__fun_cuCtxDetachE
00000000006745e8 B _ZN6cudart17__fun_cuDeviceGetE
0000000000674d50 B _ZN6cudart17__fun_cuMemAdviseE
0000000000675548 b _ZN6cudart17__funtmp_cuGLInitE
00000000006750f8 b _ZN6cudart17__funtmp_cuMemcpyE
0000000000671480 D _ZN6cudart17g_descriptorTableE
000000000041c390 T _ZN6cudart17threadLaunchState10pushConfigE4dim3S1_mP11CUstream_st
000000000041c2d0 T _ZN6cudart17threadLaunchState18popConfigForLaunchERNS_10configDataE
0000000000413d40 t _ZN6cudart17__unimpl_cuGLInitEv
00000000004134a0 t _ZN6cudart17__unimpl_cuMemcpyEyym
0000000000411750 T _ZN6cudart18cudaApiBindTextureEPmPK16textureReferencePKvPK21cudaChannelFormatDescm
000000000040f1d0 T _ZN6cudart18cudaApiDeviceResetEv
000000000040d410 T _ZN6cudart18cudaApiEventCreateEPP10CUevent_st
0000000000406070 T _ZN6cudart18cudaApiEventRecordEP10CUevent_stP11CUstream_st
000000000040a480 T _ZN6cudart18cudaApiGraphCreateEPP10CUgraph_stj
0000000000405de0 T _ZN6cudart18cudaApiGraphLaunchEP14CUgraphExec_stP11CUstream_st
0000000000408b40 T _ZN6cudart18cudaApiMallocArrayEPP9cudaArrayPK21cudaChannelFormatDescmmj
0000000000408d30 T _ZN6cudart18cudaApiMallocPitchEPPvPmmm
0000000000408840 T _ZN6cudart18cudaApiMemcpyAsyncEPvPKvm14cudaMemcpyKindP11CUstream_st
00000000004088f0 T _ZN6cudart18cudaApiMemcpy_ptdsEPvPKvm14cudaMemcpyKind
0000000000407780 T _ZN6cudart18cudaApiMemsetAsyncEPvimP11CUstream_st
0000000000407820 T _ZN6cudart18cudaApiMemset_ptdsEPvim
0000000000406130 T _ZN6cudart18cudaApiStreamQueryEP11CUstream_st
0000000000455000 T _ZN6cudart18cuosEventIpcCreateEPNS_9cuosEventEPcNS_15cuosEventMode_tE
0000000000452b30 T _ZN6cudart18cuosFreeSwapMemoryEv
00000000004565e0 T _ZN6cudart18cuosGetProcAddressEPvPKc
0000000000455620 T _ZN6cudart18cuosGetRandomBytesEPvm
0000000000452a20 T _ZN6cudart18cuosInterlockedAndEPVjj
00000000004568a0 T _ZN6cudart18cuosPipeCreatePairEPNS_11CUOSpipe_stES1_
0000000000455d80 T _ZN6cudart18cuosRmdirRecursiveEPKc
0000000000455310 T _ZN6cudart18cuosShmBaseAddressEPKNS_14cuosShmInfo_stE
0000000000457560 T _ZN6cudart18cuosShmOpenNamedExEPvPKcmPPNS_16cuosShmInfoEx_stE
0000000000451ba0 T _ZN6cudart18cuosSocketRecvCredEPNS_10CUOSsocketEPiPjS3_
00000000004532d0 T _ZN6cudart18cuosSocketSendCredEPNS_10CUOSsocketEPiPjS3_
0000000000456660 T _ZN6cudart18cuosVirtualProtectEPvmj
0000000000674ab8 B _ZN6cudart18__fun_cuEventQueryE
0000000000674e08 B _ZN6cudart18__fun_cuGraphCloneE
0000000000674718 B _ZN6cudart18__fun_cuLinkCreateE
00000000006747d0 B _ZN6cudart18__fun_cuMemcpyPeerE
0000000000674760 B _ZN6cudart18__fun_cuMemFree_v2E
00000000006746d8 B _ZN6cudart18__fun_cuModuleLoadE
00000000004068d0 t _ZN6cudart18getRuntimeEglFrameEP15cudaEglFrame_st13CUeglFrame_st
000000000041b390 t _ZN6cudart18releaseGlobalStateEv
0000000000675880 b _ZN6cudart19allowedNumaNodeMaskE
00000000004287b0 T _ZN6cudart19contextStateManager17initDriverContextEv
00000000004271d0 T _ZN6cudart19contextStateManager18initPrimaryContextEPNS_6deviceE
00000000004294a0 T _ZN6cudart19contextStateManager19destroyContextStateEPNS_12contextStateEb
0000000000427360 T _ZN6cudart19contextStateManager21tryInitPrimaryContextEPNS_6deviceE
00000000004292f0 T _ZN6cudart19contextStateManager22getRuntimeContextStateEPPNS_12contextStateEb
00000000004293d0 T _ZN6cudart19contextStateManager22getRuntimeContextStateEPPNS_12contextStateEP8CUctx_st
0000000000427180 T _ZN6cudart19contextStateManager23isPrimaryCtxInitializedEPNS_6deviceE
0000000000427320 T _ZN6cudart19contextStateManager25getLazyInitPrimaryContextEPP8CUctx_stPNS_6deviceE
00000000004279e0 T _ZN6cudart19contextStateManager31notifyContextStatesOfModuleLoadEPNS_12globalModuleE
0000000000429a40 T _ZN6cudart19contextStateManager32destroyCurrentThreadContextStateEv
0000000000427cc0 T _ZN6cudart19contextStateManager32getSymbolFromDriverEntryFunctionEPPvP9CUfunc_st
0000000000429af0 T _ZN6cudart19contextStateManager32notifyContextManagerOfModuleLoadEPNS_12contextStateERNS_3setIPNS_12globalModuleEEE
0000000000427700 T _ZN6cudart19contextStateManager33notifyContextStatesOfModuleUnloadEPNS_12globalModuleE
0000000000427e00 T _ZN6cudart19contextStateManager34notifyContextManagerOfModuleUnloadEPNS_12contextStateERNS_3mapIPNS_12globalModuleEPNS_6moduleEEE
000000000042a470 T _ZN6cudart19contextStateManager34notifyContextManagerOfModuleUnloadEPNS_12contextStateERNS_3setIPNS_6moduleEEE
00000000004289d0 T _ZN6cudart19contextStateManager36initRuntimeContextState_nonreentrantEPPNS_12contextStateE
00000000004297b0 T _ZN6cudart19contextStateManager38destroyAllContextStatesOnRuntimeUnloadEv
0000000000429a80 T _ZN6cudart19contextStateManager51destroyContextStateFromDriverContextDestroyCallbackEPNS_12contextStateE
0000000000427610 T _ZN6cudart19contextStateManager6createEPPS0_PNS_11globalStateEPNS_9deviceMgrE
00000000004273d0 T _ZN6cudart19contextStateManager7destroyEPS0_
000000000040c5f0 T _ZN6cudart19cudaApiArrayGetInfoEP21cudaChannelFormatDescP10cudaExtentPjP9cudaArray
000000000040ed10 T _ZN6cudart19cudaApiChooseDeviceEPiPK14cudaDeviceProp
000000000040d250 T _ZN6cudart19cudaApiEventDestroyEP10CUevent_st
0000000000405400 T _ZN6cudart19cudaApiGetErrorNameE9cudaError
00000000004098d0 T _ZN6cudart19cudaApiGetLastErrorEv
000000000040f560 T _ZN6cudart19cudaApiGLGetDevicesEPjPij16cudaGLDeviceList
00000000004099a0 T _ZN6cudart19cudaApiGraphDestroyEP10CUgraph_st
0000000000408de0 T _ZN6cudart19cudaApiHostGetFlagsEPjPv
000000000040cbc0 T _ZN6cudart19cudaApiHostRegisterEPvmj
0000000000412120 T _ZN6cudart19cudaApiLaunchKernelEPKv4dim3S2_PPvmP11CUstream_st
0000000000407d30 T _ZN6cudart19cudaApiMemcpy3DPeerEPK21cudaMemcpy3DPeerParms
000000000040ea30 T _ZN6cudart19cudaApiProfilerStopEv
000000000040d860 T _ZN6cudart19cudaApiStreamCreateEPP11CUstream_st
0000000000673360 d _ZN6cudart19cudartErrorTableArrE
00000000004561e0 T _ZN6cudart19cuosDestroyRWLockExEPPv
0000000000455370 T _ZN6cudart19cuosFflush_internalEP8_IO_FILE
0000000000455e40 T _ZN6cudart19cuosHasThreadExitedEPNS_13CUOSthread_stE
0000000000452870 T _ZN6cudart19cuosInterlockedOr64EPVyy
0000000000451160 T _ZN6cudart19cuosNumaIsSupportedEv
00000000004523d0 T _ZN6cudart19cuosSemaphoreCreateEP5sem_ti
0000000000452270 T _ZN6cudart19cuosSemaphoreSignalEP5sem_t
0000000000456a80 T _ZN6cudart19cuosThreadIsCurrentEPNS_13CUOSthread_stE
0000000000452b50 T _ZN6cudart19cuosTotalSwapMemoryEv
0000000000674668 B _ZN6cudart19__fun_cuCtxGetFlagsE
0000000000674698 B _ZN6cudart19__fun_cuCtxGetLimitE
00000000006746a0 B _ZN6cudart19__fun_cuCtxSetLimitE
0000000000674aa0 B _ZN6cudart19__fun_cuEventCreateE
0000000000674aa8 B _ZN6cudart19__fun_cuEventRecordE
0000000000674d88 B _ZN6cudart19__fun_cuGraphCreateE
0000000000674e68 B _ZN6cudart19__fun_cuGraphLaunchE
0000000000674720 B _ZN6cudart19__fun_cuLinkAddDataE
0000000000674728 B _ZN6cudart19__fun_cuLinkAddFileE
0000000000674738 B _ZN6cudart19__fun_cuLinkDestroyE
0000000000674750 B _ZN6cudart19__fun_cuMemAlloc_v2E
0000000000674870 B _ZN6cudart19__fun_cuMemcpy3D_v2E
00000000006747c0 B _ZN6cudart19__fun_cuMemcpyAsyncE
00000000006747b8 B _ZN6cudart19__fun_cuMemcpy_ptdsE
0000000000674770 B _ZN6cudart19__fun_cuMemFreeHostE
00000000006748b0 B _ZN6cudart19__fun_cuMemsetD8_v2E
0000000000674b98 B _ZN6cudart19__fun_cuStreamQueryE
0000000000414e60 T _ZN6cudart19globalStateAutoLockC1Ev
0000000000414e70 T _ZN6cudart19globalStateAutoLockC2Ev
0000000000414f10 T _ZN6cudart19globalStateAutoLockD1Ev
0000000000414f20 T _ZN6cudart19globalStateAutoLockD2Ev
0000000000674540 d _ZN6cudart19globalStateRefCountE
0000000000411810 T _ZN6cudart20cudaApiBindTexture2DEPmPK16textureReferencePKvPK21cudaChannelFormatDescmmm
00000000004122c0 T _ZN6cudart20cudaApiGetSymbolSizeEPmPKv
000000000040f4b0 T _ZN6cudart20cudaApiGLSetGLDeviceEi
0000000000409dd0 T _ZN6cudart20cudaApiGraphGetEdgesEP10CUgraph_stPP14CUgraphNode_stS4_Pm
0000000000409f00 T _ZN6cudart20cudaApiGraphGetNodesEP10CUgraph_stPP14CUgraphNode_stPm
0000000000408a70 T _ZN6cudart20cudaApiMalloc3DArrayEPP9cudaArrayPK21cudaChannelFormatDesc10cudaExtentj
00000000004090b0 T _ZN6cudart20cudaApiMallocManagedEPPvmj
00000000004086a0 T _ZN6cudart20cudaApiMemcpy2DAsyncEPvmPKvmmm14cudaMemcpyKindP11CUstream_st
0000000000408770 T _ZN6cudart20cudaApiMemcpy2D_ptdsEPvmPKvmmm14cudaMemcpyKind
00000000004113b0 T _ZN6cudart20cudaApiMemcpy3DAsyncEPK17cudaMemcpy3DParmsP11CUstream_st
0000000000407dd0 T _ZN6cudart20cudaApiMemcpy3D_ptdsEPK17cudaMemcpy3DParms
00000000004085d0 T _ZN6cudart20cudaApiMemcpyToArrayEP9cudaArraymmPKvm14cudaMemcpyKind
0000000000407600 T _ZN6cudart20cudaApiMemset2DAsyncEPvmimmP11CUstream_st
00000000004111c0 T _ZN6cudart20cudaApiMemset2D_ptdsEPvmimm
0000000000407340 T _ZN6cudart20cudaApiMemset3DAsyncE14cudaPitchedPtri10cudaExtentP11CUstream_st
0000000000410bf0 T _ZN6cudart20cudaApiMemset3D_ptdsE14cudaPitchedPtri10cudaExtent
000000000040a500 T _ZN6cudart20cudaApiProfilerStartEv
000000000040d670 T _ZN6cudart20cudaApiStreamDestroyEP11CUstream_st
0000000000411970 T _ZN6cudart20cudaApiUnbindTextureEPK16textureReference
0000000000459300 r _ZN6cudart20cudartErrorValuesArrE
0000000000457400 T _ZN6cudart20cuosCondCreateSharedEP14pthread_cond_t
0000000000452b20 T _ZN6cudart20cuosGetProcCoreCountEv
0000000000452980 T _ZN6cudart20cuosInterlockedAnd64EPVyy
0000000000455c10 t _ZN6cudart20cuosLockFileInternalEP8_IO_FILEji
0000000000456dd0 T _ZN6cudart20cuosPipeAcceptClientEPNS_11CUOSpipe_stES1_
0000000000456fd0 T _ZN6cudart20cuosPipeOpenAsClientEPKcS1_PNS_11CUOSpipe_stE
00000000004558d0 T _ZN6cudart20cuosPipeOpenAsServerEPKcPvPNS_11CUOSpipe_stE
0000000000455fa0 T _ZN6cudart20cuosProcessHasExitedEi
00000000004523b0 T _ZN6cudart20cuosSemaphoreDestroyEP5sem_t
0000000000457790 T _ZN6cudart20cuosShmCreateNamedExEPvPKcmPPNS_16cuosShmInfoEx_stE
0000000000455f80 T _ZN6cudart20cuosThreadYieldHeavyEv
0000000000674930 B _ZN6cudart20__fun_cuArrayDestroyE
0000000000674660 B _ZN6cudart20__fun_cuCtxCreate_v2E
0000000000674690 B _ZN6cudart20__fun_cuCtxGetDeviceE
0000000000674d80 B _ZN6cudart20__fun_cuGetErrorNameE
0000000000674c08 B _ZN6cudart20__fun_cuGLGetDevicesE
0000000000674e80 B _ZN6cudart20__fun_cuGraphDestroyE
0000000000674a68 B _ZN6cudart20__fun_cuLaunchKernelE
0000000000674730 B _ZN6cudart20__fun_cuLinkCompleteE
0000000000674890 B _ZN6cudart20__fun_cuMemcpy3DPeerE
0000000000674778 B _ZN6cudart20__fun_cuMemHostAllocE
00000000006746f0 B _ZN6cudart20__fun_cuModuleUnloadE
0000000000674d18 B _ZN6cudart20__fun_cuProfilerStopE
0000000000674b28 B _ZN6cudart20__fun_cuStreamCreateE
0000000000674b50 B _ZN6cudart20__fun_cuStreamGetCtxE
0000000000674950 B _ZN6cudart20__fun_cuTexRefCreateE
0000000000674fc8 b _ZN6cudart20__funtmp_cuCtxDetachE
0000000000674f30 b _ZN6cudart20__funtmp_cuDeviceGetE
0000000000675698 b _ZN6cudart20__funtmp_cuMemAdviseE
00000000006714a0 d _ZN6cudart20localDescriptorTableE
0000000000675888 b _ZN6cudart20numPossibleNumaNodesE
0000000000413240 t _ZN6cudart20__unimpl_cuCtxDetachEP8CUctx_st
0000000000413110 t _ZN6cudart20__unimpl_cuDeviceGetEPii
0000000000413fe0 t _ZN6cudart20__unimpl_cuMemAdviseEym17CUmem_advise_enumi
000000000040e1b0 T _ZN6cudart21cudaApiDeviceGetLimitEPm9cudaLimit
000000000040e2b0 T _ZN6cudart21cudaApiDeviceSetLimitE9cudaLimitm
0000000000406840 T _ZN6cudart21cudaApiGetChannelDescEP21cudaChannelFormatDescPK9cudaArray
000000000040ee30 T _ZN6cudart21cudaApiGetDeviceCountEPi
000000000040ee90 T _ZN6cudart21cudaApiGetDeviceFlagsEPj
0000000000405260 T _ZN6cudart21cudaApiGetErrorStringE9cudaError
000000000040cb60 T _ZN6cudart21cudaApiHostUnregisterEPv
0000000000405fb0 T _ZN6cudart21cudaApiLaunchHostFuncEP11CUstream_stPFvPvES2_
00000000004128f0 T _ZN6cudart21cudaApiMemcpyToSymbolEPKvS1_mm14cudaMemcpyKind
000000000040f040 T _ZN6cudart21cudaApiSetDeviceFlagsEj
00000000004062e0 T _ZN6cudart21cudaApiStreamGetFlagsEP11CUstream_stPj
000000000040e230 T _ZN6cudart21cudaApiThreadGetLimitEPm9cudaLimit
000000000040e330 T _ZN6cudart21cudaApiThreadSetLimitE9cudaLimitm
000000000040b120 T _ZN6cudart21cudaApiVDPAUGetDeviceEPijPF9VdpStatusjjPPvE
0000000000456270 T _ZN6cudart21cuosAcquireReaderLockEPPv
0000000000456260 T _ZN6cudart21cuosAcquireWriterLockEPPv
0000000000454610 T _ZN6cudart21cuosEventWaitMultipleEPPNS_9cuosEventEiPijj
00000000004514f0 T _ZN6cudart21cuosGetProcessorCountEv
0000000000452d00 T _ZN6cudart21cuosGetThreadAffinityEPNS_13CUOSthread_stEPm
00000000004526e0 T _ZN6cudart21cuosGetUserDataNVPathEPcm
0000000000456c60 T _ZN6cudart21cuosLoadLibraryUnsafeEPKc
0000000000455850 T _ZN6cudart21cuosPipeGetReadStreamEPNS_11CUOSpipe_stE
0000000000451120 T _ZN6cudart21cuosProcessorMaskSizeEv
00000000004561f0 T _ZN6cudart21cuosReleaseReaderLockEPPv
0000000000456aa0 T _ZN6cudart21cuosReleaseWriterLockEPPv
0000000000451730 T _ZN6cudart21cuosServerSocketCloseEPNS_16CUOSserverSocketE
0000000000452c90 T _ZN6cudart21cuosSetThreadAffinityEPNS_13CUOSthread_stEPKm
0000000000674678 B _ZN6cudart21__fun_cuCtxGetCurrentE
0000000000674670 B _ZN6cudart21__fun_cuCtxSetCurrentE
00000000006745f8 B _ZN6cudart21__fun_cuDeviceGetNameE
0000000000674630 B _ZN6cudart21__fun_cuDeviceGetUuidE
0000000000674e30 B _ZN6cudart21__fun_cuGraphGetEdgesE
0000000000674e20 B _ZN6cudart21__fun_cuGraphGetNodesE
0000000000674830 B _ZN6cudart21__fun_cuMemcpyDtoD_v2E
0000000000674810 B _ZN6cudart21__fun_cuMemcpyDtoH_v2E
00000000006747f0 B _ZN6cudart21__fun_cuMemcpyHtoD_v2E
0000000000674740 B _ZN6cudart21__fun_cuMemGetInfo_v2E
00000000006748d0 B _ZN6cudart21__fun_cuMemsetD2D8_v2E
00000000006748c0 B _ZN6cudart21__fun_cuMemsetD8AsyncE
0000000000674d10 B _ZN6cudart21__fun_cuProfilerStartE
0000000000674958 B _ZN6cudart21__fun_cuTexRefDestroyE
0000000000675400 b _ZN6cudart21__funtmp_cuEventQueryE
0000000000675750 b _ZN6cudart21__funtmp_cuGraphCloneE
0000000000675060 b _ZN6cudart21__funtmp_cuLinkCreateE
0000000000675118 b _ZN6cudart21__funtmp_cuMemcpyPeerE
00000000006750a8 b _ZN6cudart21__funtmp_cuMemFree_v2E
0000000000675020 b _ZN6cudart21__funtmp_cuModuleLoadE
00000000004592c0 R _ZN6cudart21g_descriptorTableSizeE
0000000000405670 T _ZN6cudart21toCudartGraphNodeTypeE20CUgraphNodeType_enumP17cudaGraphNodeType
0000000000413ab0 t _ZN6cudart21__unimpl_cuEventQueryEP10CUevent_st
0000000000414150 t _ZN6cudart21__unimpl_cuGraphCloneEPP10CUgraph_stS1_
0000000000413370 t _ZN6cudart21__unimpl_cuLinkCreateEjP17CUjit_option_enumPPvPP14CUlinkState_st
00000000004134e0 t _ZN6cudart21__unimpl_cuMemcpyPeerEyP8CUctx_styS1_m
0000000000413400 t _ZN6cudart21__unimpl_cuMemFree_v2Ey
00000000004132f0 t _ZN6cudart21__unimpl_cuModuleLoadEPP8CUmod_stPKc
000000000040db70 T _ZN6cudart22cudaApiIpcGetMemHandleEP19cudaIpcMemHandle_stPv
0000000000410a40 T _ZN6cudart22cudaApiMemcpy2DToArrayEP9cudaArraymmPKvmmm14cudaMemcpyKind
0000000000408270 T _ZN6cudart22cudaApiMemcpyFromArrayEPvPK9cudaArraymmm14cudaMemcpyKind
000000000040fc30 T _ZN6cudart22cudaApiMemcpyPeerAsyncEPviPKvimP11CUstream_st
00000000004098a0 T _ZN6cudart22cudaApiPeekAtLastErrorEv
000000000040d910 T _ZN6cudart22cudaApiSetValidDevicesEPii
000000000040d520 T _ZN6cudart22cudaApiStreamWaitEventEP11CUstream_stP10CUevent_stj
0000000000452b70 T _ZN6cudart22cuosFreePhysicalMemoryEv
0000000000455e30 T _ZN6cudart22cuosGetCurrentThreadIdEv
00000000004521d0 T _ZN6cudart22cuosLinuxKernelVersionEPiS0_S0_
0000000000455820 T _ZN6cudart22cuosPipeGetWriteStreamEPNS_11CUOSpipe_stE
00000000004542e0 T _ZN6cudart22cuosSocketAcceptClientEPNS_16CUOSserverSocketEPNS_10CUOSsocketE
0000000000455090 T _ZN6cudart22cuosSocketOpenAsClientEPKvmPNS_10CUOSsocketE
00000000004520f0 T _ZN6cudart22cuosSocketOpenAsServerEPKvmPNS_16CUOSserverSocketE
000000000041c9b0 T _ZN6cudart22doLazyInitContextStateEv
0000000000674910 B _ZN6cudart22__fun_cuArrayCreate_v2E
00000000006746d0 B _ZN6cudart22__fun_cuCtxSynchronizeE
00000000006745f0 B _ZN6cudart22__fun_cuDeviceGetCountE
0000000000674d78 B _ZN6cudart22__fun_cuGetErrorStringE
0000000000674d40 B _ZN6cudart22__fun_cuGetExportTableE
0000000000674bf8 B _ZN6cudart22__fun_cuGLCtxCreate_v2E
0000000000674a90 B _ZN6cudart22__fun_cuLaunchHostFuncE
00000000006746e0 B _ZN6cudart22__fun_cuModuleLoadDataE
0000000000674b48 B _ZN6cudart22__fun_cuStreamGetFlagsE
0000000000674960 B _ZN6cudart22__fun_cuTexRefSetArrayE
00000000006749b8 B _ZN6cudart22__fun_cuTexRefSetFlagsE
0000000000674d20 B _ZN6cudart22__fun_cuVDPAUGetDeviceE
0000000000674fb0 b _ZN6cudart22__funtmp_cuCtxGetFlagsE
0000000000674fe0 b _ZN6cudart22__funtmp_cuCtxGetLimitE
0000000000674fe8 b _ZN6cudart22__funtmp_cuCtxSetLimitE
00000000006753e8 b _ZN6cudart22__funtmp_cuEventCreateE
00000000006753f0 b _ZN6cudart22__funtmp_cuEventRecordE
00000000006756d0 b _ZN6cudart22__funtmp_cuGraphCreateE
00000000006757b0 b _ZN6cudart22__funtmp_cuGraphLaunchE
0000000000675068 b _ZN6cudart22__funtmp_cuLinkAddDataE
0000000000675070 b _ZN6cudart22__funtmp_cuLinkAddFileE
0000000000675080 b _ZN6cudart22__funtmp_cuLinkDestroyE
0000000000675098 b _ZN6cudart22__funtmp_cuMemAlloc_v2E
00000000006751b8 b _ZN6cudart22__funtmp_cuMemcpy3D_v2E
0000000000675108 b _ZN6cudart22__funtmp_cuMemcpyAsyncE
0000000000675100 b _ZN6cudart22__funtmp_cuMemcpy_ptdsE
00000000006750b8 b _ZN6cudart22__funtmp_cuMemFreeHostE
00000000006751f8 b _ZN6cudart22__funtmp_cuMemsetD8_v2E
00000000006754e0 b _ZN6cudart22__funtmp_cuStreamQueryE
0000000000675870 b _ZN6cudart22getNumaInfoOnceControlE
0000000000675878 b _ZN6cudart22processorToNumaNodeMapE
0000000000405650 T _ZN6cudart22toDriverHostNodeParamsEPK18cudaHostNodeParamsP24CUDA_HOST_NODE_PARAMS_st
0000000000413210 t _ZN6cudart22__unimpl_cuCtxGetFlagsEPj
0000000000413270 t _ZN6cudart22__unimpl_cuCtxGetLimitEPm12CUlimit_enum
0000000000413280 t _ZN6cudart22__unimpl_cuCtxSetLimitE12CUlimit_enumm
0000000000413a80 t _ZN6cudart22__unimpl_cuEventCreateEPP10CUevent_stj
0000000000413a90 t _ZN6cudart22__unimpl_cuEventRecordEP10CUevent_stP11CUstream_st
0000000000414050 t _ZN6cudart22__unimpl_cuGraphCreateEPP10CUgraph_stj
0000000000414210 t _ZN6cudart22__unimpl_cuGraphLaunchEP14CUgraphExec_stP11CUstream_st
0000000000413380 t _ZN6cudart22__unimpl_cuLinkAddDataEP14CUlinkState_st19CUjitInputType_enumPvmPKcjP17CUjit_option_enumPS3_
0000000000413390 t _ZN6cudart22__unimpl_cuLinkAddFileEP14CUlinkState_st19CUjitInputType_enumPKcjP17CUjit_option_enumPPv
00000000004133b0 t _ZN6cudart22__unimpl_cuLinkDestroyEP14CUlinkState_st
00000000004133e0 t _ZN6cudart22__unimpl_cuMemAlloc_v2EPym
0000000000413620 t _ZN6cudart22__unimpl_cuMemcpy3D_v2EPK16CUDA_MEMCPY3D_st
00000000004134c0 t _ZN6cudart22__unimpl_cuMemcpyAsyncEyymP11CUstream_st
00000000004134b0 t _ZN6cudart22__unimpl_cuMemcpy_ptdsEyym
0000000000413420 t _ZN6cudart22__unimpl_cuMemFreeHostEPv
00000000004136a0 t _ZN6cudart22__unimpl_cuMemsetD8_v2Eyhm
0000000000413c70 t _ZN6cudart22__unimpl_cuStreamQueryEP11CUstream_st
0000000000674ef8 b _ZN6cudart23createGobalStateControlE
0000000000405940 T _ZN6cudart23cudaApiDriverGetVersionEPi
000000000040d1b0 T _ZN6cudart23cudaApiEventElapsedTimeEPfP10CUevent_stS2_
0000000000406060 T _ZN6cudart23cudaApiEventRecord_ptszEP10CUevent_stP11CUstream_st
000000000040d2b0 T _ZN6cudart23cudaApiEventSynchronizeEP10CUevent_st
0000000000412900 T _ZN6cudart23cudaApiFuncSetAttributeEPKv17cudaFuncAttributei
0000000000412340 T _ZN6cudart23cudaApiGetSymbolAddressEPPvPKv
000000000040e7f0 T _ZN6cudart23cudaApiGraphAddHostNodeEPP14CUgraphNode_stP10CUgraph_stPKS1_mPK18cudaHostNodeParams
0000000000409b10 T _ZN6cudart23cudaApiGraphDestroyNodeEP14CUgraphNode_st
0000000000409a00 T _ZN6cudart23cudaApiGraphExecDestroyEP14CUgraphExec_st
0000000000409a60 T _ZN6cudart23cudaApiGraphInstantiateEPP14CUgraphExec_stP10CUgraph_stPP14CUgraphNode_stPcm
0000000000405dd0 T _ZN6cudart23cudaApiGraphLaunch_ptszEP14CUgraphExec_stP11CUstream_st
0000000000410010 T _ZN6cudart23cudaApiGraphNodeGetTypeEP14CUgraphNode_stP17cudaGraphNodeType
000000000040da00 T _ZN6cudart23cudaApiIpcOpenMemHandleEPPv19cudaIpcMemHandle_stj
0000000000410ee0 T _ZN6cudart23cudaApiMemcpyAsync_ptszEPvPKvm14cudaMemcpyKindP11CUstream_st
0000000000412640 T _ZN6cudart23cudaApiMemcpyFromSymbolEPvPKvmm14cudaMemcpyKind
0000000000405ed0 T _ZN6cudart23cudaApiMemPrefetchAsyncEPKvmiP11CUstream_st
0000000000411280 T _ZN6cudart23cudaApiMemsetAsync_ptszEPvimP11CUstream_st
00000000004055b0 T _ZN6cudart23cudaApiSetDoubleForHostEPd
0000000000405c60 T _ZN6cudart23cudaApiStreamEndCaptureEP11CUstream_stPP10CUgraph_st
0000000000406120 T _ZN6cudart23cudaApiStreamQuery_ptszEP11CUstream_st
00000000004523f0 T _ZN6cudart23cuosEventIsSafeToSignalEPNS_9cuosEventE
0000000000452c60 T _ZN6cudart23cuosGetCurrentProcessorEv
0000000000452ae0 T _ZN6cudart23cuosInterlockedExchangeEPVjj
0000000000455330 T _ZN6cudart23cuosMemoryStartTeardownEv
0000000000452b90 T _ZN6cudart23cuosTotalPhysicalMemoryEv
0000000000456ab0 T _ZN6cudart23cuosVirtualAllocInRangeEPvmjjS0_S0_m
0000000000674ac8 B _ZN6cudart23__fun_cuEventDestroy_v2E
0000000000674be0 B _ZN6cudart23__fun_cuIpcGetMemHandleE
0000000000674748 B _ZN6cudart23__fun_cuMemAllocManagedE
00000000006747e0 B _ZN6cudart23__fun_cuMemcpyPeerAsyncE
00000000006747d8 B _ZN6cudart23__fun_cuMemcpyPeer_ptdsE
0000000000674788 B _ZN6cudart23__fun_cuMemHostGetFlagsE
00000000006748e0 B _ZN6cudart23__fun_cuMemsetD2D8AsyncE
0000000000674708 B _ZN6cudart23__fun_cuModuleGetTexRefE
0000000000674b68 B _ZN6cudart23__fun_cuStreamWaitEventE
00000000006749d0 B _ZN6cudart23__fun_cuSurfRefSetArrayE
00000000006749d8 B _ZN6cudart23__fun_cuTexObjectCreateE
0000000000674980 B _ZN6cudart23__fun_cuTexRefSetFormatE
0000000000675278 b _ZN6cudart23__funtmp_cuArrayDestroyE
0000000000674fa8 b _ZN6cudart23__funtmp_cuCtxCreate_v2E
0000000000674fd8 b _ZN6cudart23__funtmp_cuCtxGetDeviceE
00000000006756c8 b _ZN6cudart23__funtmp_cuGetErrorNameE
0000000000675550 b _ZN6cudart23__funtmp_cuGLGetDevicesE
00000000006757c8 b _ZN6cudart23__funtmp_cuGraphDestroyE
00000000006753b0 b _ZN6cudart23__funtmp_cuLaunchKernelE
0000000000675078 b _ZN6cudart23__funtmp_cuLinkCompleteE
00000000006751d8 b _ZN6cudart23__funtmp_cuMemcpy3DPeerE
00000000006750c0 b _ZN6cudart23__funtmp_cuMemHostAllocE
0000000000675038 b _ZN6cudart23__funtmp_cuModuleUnloadE
0000000000675660 b _ZN6cudart23__funtmp_cuProfilerStopE
0000000000675470 b _ZN6cudart23__funtmp_cuStreamCreateE
0000000000675498 b _ZN6cudart23__funtmp_cuStreamGetCtxE
0000000000675298 b _ZN6cudart23__funtmp_cuTexRefCreateE
000000000041c2b0 T _ZN6cudart23getLazyInitContextStateEPPNS_12contextStateE
00000000006758a8 b _ZN6cudart23_pthread_getaffinity_npE
00000000006758a0 b _ZN6cudart23_pthread_setaffinity_npE
0000000000405660 T _ZN6cudart23toRuntimeHostNodeParamsEPK24CUDA_HOST_NODE_PARAMS_stP18cudaHostNodeParams
00000000004137a0 t _ZN6cudart23__unimpl_cuArrayDestroyEP10CUarray_st
0000000000413200 t _ZN6cudart23__unimpl_cuCtxCreate_v2EPP8CUctx_stji
0000000000413260 t _ZN6cudart23__unimpl_cuCtxGetDeviceEPi
0000000000414040 t _ZN6cudart23__unimpl_cuGetErrorNameE14cudaError_enumPPKc
0000000000413d50 t _ZN6cudart23__unimpl_cuGLGetDevicesEPjPij19CUGLDeviceList_enum
0000000000414240 t _ZN6cudart23__unimpl_cuGraphDestroyEP10CUgraph_st
0000000000413a10 t _ZN6cudart23__unimpl_cuLaunchKernelEP9CUfunc_stjjjjjjjP11CUstream_stPPvS5_
00000000004133a0 t _ZN6cudart23__unimpl_cuLinkCompleteEP14CUlinkState_stPPvPm
0000000000413660 t _ZN6cudart23__unimpl_cuMemcpy3DPeerEPK21CUDA_MEMCPY3D_PEER_st
0000000000413430 t _ZN6cudart23__unimpl_cuMemHostAllocEPPvmj
0000000000413320 t _ZN6cudart23__unimpl_cuModuleUnloadEP8CUmod_st
0000000000413f70 t _ZN6cudart23__unimpl_cuProfilerStopEv
0000000000413b90 t _ZN6cudart23__unimpl_cuStreamCreateEPP11CUstream_stj
0000000000413be0 t _ZN6cudart23__unimpl_cuStreamGetCtxEP11CUstream_stPP8CUctx_st
00000000004137e0 t _ZN6cudart23__unimpl_cuTexRefCreateEPP11CUtexref_st
00000000004055d0 T _ZN6cudart24cudaApiCreateChannelDescEiiii21cudaChannelFormatKind
000000000040de60 T _ZN6cudart24cudaApiDeviceGetPCIBusIdEPcii
000000000040e3b0 T _ZN6cudart24cudaApiDeviceSynchronizeEv
0000000000405fc0 t _ZN6cudart24cudaApiEventRecordCommonEP10CUevent_stP11CUstream_stb
000000000040e470 T _ZN6cudart24cudaApiFuncGetAttributesEP18cudaFuncAttributesPKv
000000000040b500 T _ZN6cudart24cudaApiGLMapBufferObjectEPPvj
000000000040a0a0 T _ZN6cudart24cudaApiGraphAddEmptyNodeEPP14CUgraphNode_stP10CUgraph_stPKS1_m
0000000000409e70 T _ZN6cudart24cudaApiGraphGetRootNodesEP10CUgraph_stPP14CUgraphNode_stPm
0000000000405d30 t _ZN6cudart24cudaApiGraphLaunchCommonEP14CUgraphExec_stP11CUstream_stb
000000000040d9a0 T _ZN6cudart24cudaApiIpcCloseMemHandleEPv
000000000040dda0 T _ZN6cudart24cudaApiIpcGetEventHandleEP21cudaIpcEventHandle_stP10CUevent_st
00000000004120e0 T _ZN6cudart24cudaApiLaunchKernel_ptszEPKv4dim3S2_PPvmP11CUstream_st
00000000004080c0 T _ZN6cudart24cudaApiMemcpy2DFromArrayEPvmPK9cudaArraymmmm14cudaMemcpyKind
0000000000407af0 T _ZN6cudart24cudaApiMemcpy3DPeerAsyncEPK21cudaMemcpy3DPeerParmsP11CUstream_st
0000000000407d20 T _ZN6cudart24cudaApiMemcpy3DPeer_ptdsEPK21cudaMemcpy3DPeerParms
00000000004057f0 T _ZN6cudart24cudaApiRuntimeGetVersionEPi
00000000004097a0 T _ZN6cudart24cudaApiStreamAddCallbackEP11CUstream_stPFvS1_9cudaErrorPvES3_j
00000000004063a0 T _ZN6cudart24cudaApiStreamGetPriorityEP11CUstream_stPi
0000000000405ba0 T _ZN6cudart24cudaApiStreamIsCapturingEP11CUstream_stP23cudaStreamCaptureStatus
0000000000406080 t _ZN6cudart24cudaApiStreamQueryCommonEP11CUstream_stb
000000000040d610 T _ZN6cudart24cudaApiStreamSynchronizeEP11CUstream_st
000000000040e410 T _ZN6cudart24cudaApiThreadSynchronizeEv
0000000000456330 T _ZN6cudart24cuosEnterCriticalSectionEP15pthread_mutex_t
0000000000452440 T _ZN6cudart24cuosEventCreateWithFlagsEPNS_9cuosEventEj
0000000000452ab0 T _ZN6cudart24cuosInterlockedDecrementEPVj
0000000000452ad0 T _ZN6cudart24cuosInterlockedIncrementEPVj
00000000004562f0 T _ZN6cudart24cuosLeaveCriticalSectionEP15pthread_mutex_t
0000000000674544 d _ZN6cudart24cuosLinuxBestSystemClockE
0000000000675890 b _ZN6cudart24cuosMinProcessorMaskSizeE
0000000000456d70 t _ZN6cudart24cuosPosixThreadStartFuncEPv
0000000000455ea0 T _ZN6cudart24cuosThreadCreateWithNameEPPNS_13CUOSthread_stEPFiPvES3_PKc
0000000000456230 T _ZN6cudart24cuosTryAcquireReaderLockEPPv
0000000000456200 T _ZN6cudart24cuosTryAcquireWriterLockEPPv
0000000000674920 B _ZN6cudart24__fun_cuArray3DCreate_v2E
0000000000674688 B _ZN6cudart24__fun_cuCtxGetApiVersionE
0000000000674618 B _ZN6cudart24__fun_cuDriverGetVersionE
0000000000674ad0 B _ZN6cudart24__fun_cuEventElapsedTimeE
0000000000674ab0 B _ZN6cudart24__fun_cuEventRecord_ptszE
0000000000674ac0 B _ZN6cudart24__fun_cuEventSynchronizeE
0000000000674900 B _ZN6cudart24__fun_cuFuncGetAttributeE
0000000000674908 B _ZN6cudart24__fun_cuFuncSetAttributeE
0000000000674dd8 B _ZN6cudart24__fun_cuGraphAddHostNodeE
0000000000674e58 B _ZN6cudart24__fun_cuGraphDestroyNodeE
0000000000674e78 B _ZN6cudart24__fun_cuGraphExecDestroyE
0000000000674e60 B _ZN6cudart24__fun_cuGraphInstantiateE
0000000000674e70 B _ZN6cudart24__fun_cuGraphLaunch_ptszE
0000000000674e18 B _ZN6cudart24__fun_cuGraphNodeGetTypeE
0000000000674be8 B _ZN6cudart24__fun_cuIpcOpenMemHandleE
0000000000674758 B _ZN6cudart24__fun_cuMemAllocPitch_v2E
0000000000674860 B _ZN6cudart24__fun_cuMemcpy2DAsync_v2E
0000000000674880 B _ZN6cudart24__fun_cuMemcpy3DAsync_v2E
0000000000674878 B _ZN6cudart24__fun_cuMemcpy3D_v2_ptdsE
00000000006747c8 B _ZN6cudart24__fun_cuMemcpyAsync_ptszE
0000000000674d58 B _ZN6cudart24__fun_cuMemPrefetchAsyncE
00000000006748b8 B _ZN6cudart24__fun_cuMemsetD8_v2_ptdsE
0000000000674710 B _ZN6cudart24__fun_cuModuleGetSurfRefE
0000000000674b18 B _ZN6cudart24__fun_cuStreamBatchMemOpE
0000000000674b60 B _ZN6cudart24__fun_cuStreamDestroy_v2E
0000000000674ea8 B _ZN6cudart24__fun_cuStreamEndCaptureE
0000000000674ba0 B _ZN6cudart24__fun_cuStreamQuery_ptszE
0000000000674a00 B _ZN6cudart24__fun_cuSurfObjectCreateE
00000000006749e0 B _ZN6cudart24__fun_cuTexObjectDestroyE
0000000000674fc0 b _ZN6cudart24__funtmp_cuCtxGetCurrentE
0000000000674fb8 b _ZN6cudart24__funtmp_cuCtxSetCurrentE
0000000000674f40 b _ZN6cudart24__funtmp_cuDeviceGetNameE
0000000000674f78 b _ZN6cudart24__funtmp_cuDeviceGetUuidE
0000000000675778 b _ZN6cudart24__funtmp_cuGraphGetEdgesE
0000000000675768 b _ZN6cudart24__funtmp_cuGraphGetNodesE
0000000000675178 b _ZN6cudart24__funtmp_cuMemcpyDtoD_v2E
0000000000675158 b _ZN6cudart24__funtmp_cuMemcpyDtoH_v2E
0000000000675138 b _ZN6cudart24__funtmp_cuMemcpyHtoD_v2E
0000000000675088 b _ZN6cudart24__funtmp_cuMemGetInfo_v2E
0000000000675218 b _ZN6cudart24__funtmp_cuMemsetD2D8_v2E
0000000000675208 b _ZN6cudart24__funtmp_cuMemsetD8AsyncE
0000000000675658 b _ZN6cudart24__funtmp_cuProfilerStartE
00000000006752a0 b _ZN6cudart24__funtmp_cuTexRefDestroyE
0000000000419670 T _ZN6cudart24__loadDriverInternalUtilEv
0000000000411a80 T _ZN6cudart24toDriverKernelNodeParamsEPK20cudaKernelNodeParamsP26CUDA_KERNEL_NODE_PARAMS_st
00000000004055f0 T _ZN6cudart24toDriverMemsetNodeParamsEPK16cudaMemsetParamsP26CUDA_MEMSET_NODE_PARAMS_st
0000000000413230 t _ZN6cudart24__unimpl_cuCtxGetCurrentEPP8CUctx_st
0000000000413220 t _ZN6cudart24__unimpl_cuCtxSetCurrentEP8CUctx_st
0000000000413130 t _ZN6cudart24__unimpl_cuDeviceGetNameEPcii
00000000004131a0 t _ZN6cudart24__unimpl_cuDeviceGetUuidEP9CUuuid_sti
00000000004141a0 t _ZN6cudart24__unimpl_cuGraphGetEdgesEP10CUgraph_stPP14CUgraphNode_stS4_Pm
0000000000414180 t _ZN6cudart24__unimpl_cuGraphGetNodesEP10CUgraph_stPP14CUgraphNode_stPm
00000000004135a0 t _ZN6cudart24__unimpl_cuMemcpyDtoD_v2Eyym
0000000000413560 t _ZN6cudart24__unimpl_cuMemcpyDtoH_v2EPvym
0000000000413520 t _ZN6cudart24__unimpl_cuMemcpyHtoD_v2EyPKvm
00000000004133c0 t _ZN6cudart24__unimpl_cuMemGetInfo_v2EPmS0_
00000000004136e0 t _ZN6cudart24__unimpl_cuMemsetD2D8_v2Eymhmm
00000000004136c0 t _ZN6cudart24__unimpl_cuMemsetD8AsyncEyhmP11CUstream_st
0000000000413f60 t _ZN6cudart24__unimpl_cuProfilerStartEv
00000000004137f0 t _ZN6cudart24__unimpl_cuTexRefDestroyEP11CUtexref_st
0000000000429a90 t _ZN6cudart25clsContextDestroyCallbackEP8CUctx_stPvS2_
00000000004115a0 T _ZN6cudart25cudaApiBindSurfaceToArrayEPK16surfaceReferencePK9cudaArrayPK21cudaChannelFormatDesc
00000000004116c0 T _ZN6cudart25cudaApiBindTextureToArrayEPK16textureReferencePK9cudaArrayPK21cudaChannelFormatDesc
0000000000405840 T _ZN6cudart25cudaApiDeviceGetAttributeEPi14cudaDeviceAttri
000000000040c7d0 T _ZN6cudart25cudaApiFreeMipmappedArrayEP18cudaMipmappedArray
0000000000412210 T _ZN6cudart25cudaApiFuncSetCacheConfigEPKv13cudaFuncCache
0000000000412fb0 T _ZN6cudart25cudaApiGraphAddKernelNodeEPP14CUgraphNode_stP10CUgraph_stPKS1_mPK20cudaKernelNodeParams
0000000000412ba0 T _ZN6cudart25cudaApiGraphAddMemcpyNodeEPP14CUgraphNode_stP10CUgraph_stPKS1_mPK17cudaMemcpy3DParms
00000000004129e0 T _ZN6cudart25cudaApiGraphAddMemsetNodeEPP14CUgraphNode_stP10CUgraph_stPKS1_mPK16cudaMemsetParams
000000000040dc30 T _ZN6cudart25cudaApiIpcOpenEventHandleEPP10CUevent_st21cudaIpcEventHandle_st
0000000000411e80 t _ZN6cudart25cudaApiLaunchKernelCommonEPKv4dim3S2_PPvmP11CUstream_stb
00000000004107c0 T _ZN6cudart25cudaApiMemcpy2DAsync_ptszEPvmPKvmmm14cudaMemcpyKindP11CUstream_st
0000000000407d40 T _ZN6cudart25cudaApiMemcpy3DAsync_ptszEPK17cudaMemcpy3DParmsP11CUstream_st
0000000000407b00 t _ZN6cudart25cudaApiMemcpy3DPeerCommonEPK21cudaMemcpy3DPeerParmsb
00000000004103c0 T _ZN6cudart25cudaApiMemcpyArrayToArrayEP9cudaArraymmPKS0_mmm14cudaMemcpyKind
0000000000408500 T _ZN6cudart25cudaApiMemcpyToArrayAsyncEP9cudaArraymmPKvm14cudaMemcpyKindP11CUstream_st
0000000000411060 T _ZN6cudart25cudaApiMemcpyToArray_ptdsEP9cudaArraymmPKvm14cudaMemcpyKind
0000000000410d50 T _ZN6cudart25cudaApiMemset2DAsync_ptszEPvmimmP11CUstream_st
0000000000410490 T _ZN6cudart25cudaApiMemset3DAsync_ptszE14cudaPitchedPtri10cudaExtentP11CUstream_st
000000000040a560 T _ZN6cudart25cudaApiProfilerInitializeEPKcS1_14cudaOutputMode
00000000004055a0 T _ZN6cudart25cudaApiSetDoubleForDeviceEPd
0000000000405d20 T _ZN6cudart25cudaApiStreamBeginCaptureEP11CUstream_st21cudaStreamCaptureMode
0000000000456340 T _ZN6cudart25cuosDeleteCriticalSectionEP15pthread_mutex_t
00000000004579b0 T _ZN6cudart25cuosVirtualReserveInRangeEmPvS0_m
00000000006746a8 B _ZN6cudart25__fun_cuCtxGetCacheConfigE
00000000006746b0 B _ZN6cudart25__fun_cuCtxSetCacheConfigE
0000000000674628 B _ZN6cudart25__fun_cuDeviceGetPCIBusIdE
0000000000674600 B _ZN6cudart25__fun_cuDeviceTotalMem_v2E
0000000000674e00 B _ZN6cudart25__fun_cuGraphAddEmptyNodeE
0000000000674e28 B _ZN6cudart25__fun_cuGraphGetRootNodesE
0000000000674bf0 B _ZN6cudart25__fun_cuIpcCloseMemHandleE
0000000000674bd0 B _ZN6cudart25__fun_cuIpcGetEventHandleE
0000000000674a70 B _ZN6cudart25__fun_cuLaunchKernel_ptszE
00000000006748a0 B _ZN6cudart25__fun_cuMemcpy3DPeerAsyncE
0000000000674898 B _ZN6cudart25__fun_cuMemcpy3DPeer_ptdsE
0000000000674798 B _ZN6cudart25__fun_cuMemHostUnregisterE
00000000006746f8 B _ZN6cudart25__fun_cuModuleGetFunctionE
0000000000674b78 B _ZN6cudart25__fun_cuStreamAddCallbackE
0000000000674b38 B _ZN6cudart25__fun_cuStreamGetPriorityE
0000000000674eb8 B _ZN6cudart25__fun_cuStreamIsCapturingE
0000000000674b88 B _ZN6cudart25__fun_cuStreamSynchronizeE
0000000000674ad8 B _ZN6cudart25__fun_cuStreamWaitValue32E
0000000000674af8 B _ZN6cudart25__fun_cuStreamWaitValue64E
0000000000674a08 B _ZN6cudart25__fun_cuSurfObjectDestroyE
0000000000674d28 B _ZN6cudart25__fun_cuVDPAUCtxCreate_v2E
0000000000675258 b _ZN6cudart25__funtmp_cuArrayCreate_v2E
0000000000675018 b _ZN6cudart25__funtmp_cuCtxSynchronizeE
0000000000674f38 b _ZN6cudart25__funtmp_cuDeviceGetCountE
00000000006756c0 b _ZN6cudart25__funtmp_cuGetErrorStringE
0000000000675688 b _ZN6cudart25__funtmp_cuGetExportTableE
0000000000675540 b _ZN6cudart25__funtmp_cuGLCtxCreate_v2E
00000000006753d8 b _ZN6cudart25__funtmp_cuLaunchHostFuncE
0000000000675028 b _ZN6cudart25__funtmp_cuModuleLoadDataE
0000000000675490 b _ZN6cudart25__funtmp_cuStreamGetFlagsE
00000000006752a8 b _ZN6cudart25__funtmp_cuTexRefSetArrayE
0000000000675300 b _ZN6cudart25__funtmp_cuTexRefSetFlagsE
0000000000675668 b _ZN6cudart25__funtmp_cuVDPAUGetDeviceE
00000000004067a0 T _ZN6cudart25toRuntimeKernelNodeParamsEPK26CUDA_KERNEL_NODE_PARAMS_stP20cudaKernelNodeParams
0000000000405620 T _ZN6cudart25toRuntimeMemsetNodeParamsEPK26CUDA_MEMSET_NODE_PARAMS_stP16cudaMemsetParams
0000000000413760 t _ZN6cudart25__unimpl_cuArrayCreate_v2EPP10CUarray_stPK24CUDA_ARRAY_DESCRIPTOR_st
00000000004132e0 t _ZN6cudart25__unimpl_cuCtxSynchronizeEv
0000000000413120 t _ZN6cudart25__unimpl_cuDeviceGetCountEPi
0000000000414030 t _ZN6cudart25__unimpl_cuGetErrorStringE14cudaError_enumPPKc
0000000000413fc0 t _ZN6cudart25__unimpl_cuGetExportTableEPPKvPK9CUuuid_st
0000000000413d30 t _ZN6cudart25__unimpl_cuGLCtxCreate_v2EPP8CUctx_stji
0000000000413a60 t _ZN6cudart25__unimpl_cuLaunchHostFuncEP11CUstream_stPFvPvES2_
0000000000413300 t _ZN6cudart25__unimpl_cuModuleLoadDataEPP8CUmod_stPKv
0000000000413bd0 t _ZN6cudart25__unimpl_cuStreamGetFlagsEP11CUstream_stPj
0000000000413800 t _ZN6cudart25__unimpl_cuTexRefSetArrayEP11CUtexref_stP10CUarray_stj
00000000004138b0 t _ZN6cudart25__unimpl_cuTexRefSetFlagsEP11CUtexref_stj
0000000000413f80 t _ZN6cudart25__unimpl_cuVDPAUGetDeviceEPijPF9VdpStatusjjPPvE
000000000040a720 T _ZN6cudart26cudaApiCreateSurfaceObjectEPyPK16cudaResourceDesc
000000000040ab00 T _ZN6cudart26cudaApiCreateTextureObjectEPyPK16cudaResourceDescPK15cudaTextureDescPK20cudaResourceViewDesc
000000000040fb40 T _ZN6cudart26cudaApiDeviceCanAccessPeerEPiii
000000000040def0 T _ZN6cudart26cudaApiDeviceGetByPCIBusIdEPiPKc
000000000040ed90 T _ZN6cudart26cudaApiGetDevicePropertiesEP14cudaDevicePropi
0000000000411b20 T _ZN6cudart26cudaApiGetSurfaceReferenceEPPK16surfaceReferencePKv
00000000004119e0 T _ZN6cudart26cudaApiGetTextureReferenceEPPK16textureReferencePKv
000000000040b410 T _ZN6cudart26cudaApiGLUnmapBufferObjectEj
0000000000405fa0 T _ZN6cudart26cudaApiLaunchHostFunc_ptszEP11CUstream_stPFvPvES2_
00000000004127a0 T _ZN6cudart26cudaApiMemcpyToSymbolAsyncEPKvS1_mm14cudaMemcpyKindP11CUstream_st
00000000004128e0 T _ZN6cudart26cudaApiMemcpyToSymbol_ptdsEPKvS1_mm14cudaMemcpyKind
00000000004062d0 T _ZN6cudart26cudaApiStreamGetFlags_ptszEP11CUstream_stPj
000000000040f3b0 T _ZN6cudart26cudaApiVDPAUSetVDPAUDeviceEijPF9VdpStatusjjPPvE
00000000004592e0 R _ZN6cudart26cudartErrorTableEntryCountE
0000000000451530 T _ZN6cudart26cuosGetLinuxNamespaceInodeEPKcPKiPx
0000000000452a90 T _ZN6cudart26cuosInterlockedDecrement64EPVy
0000000000452ac0 T _ZN6cudart26cuosInterlockedIncrement64EPVy
00000000004542a0 T _ZN6cudart26cuosNumaGetAllowedNodeMaskEv
00000000004544c0 T _ZN6cudart26cuosNumaGetThreadMemPolicyEPiPm
0000000000454590 T _ZN6cudart26cuosNumaSetThreadMemPolicyEiPKm
0000000000674608 B _ZN6cudart26__fun_cuDeviceGetAttributeE
00000000006748f0 B _ZN6cudart26__fun_cuFuncSetCacheConfigE
0000000000674d90 B _ZN6cudart26__fun_cuGraphAddKernelNodeE
0000000000674da8 B _ZN6cudart26__fun_cuGraphAddMemcpyNodeE
0000000000674dc0 B _ZN6cudart26__fun_cuGraphAddMemsetNodeE
0000000000674bd8 B _ZN6cudart26__fun_cuIpcOpenEventHandleE
0000000000674840 B _ZN6cudart26__fun_cuMemcpyDtoDAsync_v2E
0000000000674838 B _ZN6cudart26__fun_cuMemcpyDtoD_v2_ptdsE
0000000000674820 B _ZN6cudart26__fun_cuMemcpyDtoHAsync_v2E
0000000000674818 B _ZN6cudart26__fun_cuMemcpyDtoH_v2_ptdsE
0000000000674800 B _ZN6cudart26__fun_cuMemcpyHtoDAsync_v2E
00000000006747f8 B _ZN6cudart26__fun_cuMemcpyHtoD_v2_ptdsE
0000000000674790 B _ZN6cudart26__fun_cuMemHostRegister_v2E
00000000006748d8 B _ZN6cudart26__fun_cuMemsetD2D8_v2_ptdsE
00000000006748c8 B _ZN6cudart26__fun_cuMemsetD8Async_ptszE
0000000000674700 B _ZN6cudart26__fun_cuModuleGetGlobal_v2E
0000000000674d08 B _ZN6cudart26__fun_cuProfilerInitializeE
0000000000674e88 B _ZN6cudart26__fun_cuStreamBeginCaptureE
0000000000674ae8 B _ZN6cudart26__fun_cuStreamWriteValue32E
0000000000674b08 B _ZN6cudart26__fun_cuStreamWriteValue64E
0000000000675410 b _ZN6cudart26__funtmp_cuEventDestroy_v2E
0000000000675528 b _ZN6cudart26__funtmp_cuIpcGetMemHandleE
0000000000675090 b _ZN6cudart26__funtmp_cuMemAllocManagedE
0000000000675128 b _ZN6cudart26__funtmp_cuMemcpyPeerAsyncE
0000000000675120 b _ZN6cudart26__funtmp_cuMemcpyPeer_ptdsE
00000000006750d0 b _ZN6cudart26__funtmp_cuMemHostGetFlagsE
0000000000675228 b _ZN6cudart26__funtmp_cuMemsetD2D8AsyncE
0000000000675050 b _ZN6cudart26__funtmp_cuModuleGetTexRefE
00000000006754b0 b _ZN6cudart26__funtmp_cuStreamWaitEventE
0000000000675318 b _ZN6cudart26__funtmp_cuSurfRefSetArrayE
0000000000675320 b _ZN6cudart26__funtmp_cuTexObjectCreateE
00000000006752c8 b _ZN6cudart26__funtmp_cuTexRefSetFormatE
0000000000671440 D _ZN6cudart26g_etblToolsRuntimeInstanceE
0000000000413ad0 t _ZN6cudart26__unimpl_cuEventDestroy_v2EP10CUevent_st
0000000000413d00 t _ZN6cudart26__unimpl_cuIpcGetMemHandleEP17CUipcMemHandle_sty
00000000004133d0 t _ZN6cudart26__unimpl_cuMemAllocManagedEPymj
0000000000413500 t _ZN6cudart26__unimpl_cuMemcpyPeerAsyncEyP8CUctx_styS1_mP11CUstream_st
00000000004134f0 t _ZN6cudart26__unimpl_cuMemcpyPeer_ptdsEyP8CUctx_styS1_m
0000000000413450 t _ZN6cudart26__unimpl_cuMemHostGetFlagsEPjPv
0000000000413700 t _ZN6cudart26__unimpl_cuMemsetD2D8AsyncEymhmmP11CUstream_st
0000000000413350 t _ZN6cudart26__unimpl_cuModuleGetTexRefEPP11CUtexref_stP8CUmod_stPKc
0000000000413c10 t _ZN6cudart26__unimpl_cuStreamWaitEventEP11CUstream_stP10CUevent_stj
00000000004138e0 t _ZN6cudart26__unimpl_cuSurfRefSetArrayEP12CUsurfref_stP10CUarray_stj
00000000004138f0 t _ZN6cudart26__unimpl_cuTexObjectCreateEPyPK21CUDA_RESOURCE_DESC_stPK20CUDA_TEXTURE_DESC_stPK26CUDA_RESOURCE_VIEW_DESC_st
0000000000413840 t _ZN6cudart26__unimpl_cuTexRefSetFormatEP11CUtexref_st19CUarray_format_enumi
000000000040a6c0 T _ZN6cudart27cudaApiDestroySurfaceObjectEy
000000000040aaa0 T _ZN6cudart27cudaApiDestroyTextureObjectEy
000000000040e0f0 T _ZN6cudart27cudaApiDeviceGetCacheConfigEP13cudaFuncCache
000000000040dfd0 T _ZN6cudart27cudaApiDeviceSetCacheConfigE13cudaFuncCache
000000000040d360 T _ZN6cudart27cudaApiEventCreateWithFlagsEPP10CUevent_stj
0000000000409c10 T _ZN6cudart27cudaApiGraphAddDependenciesEP10CUgraph_stPKP14CUgraphNode_stS5_m
000000000040ae80 T _ZN6cudart27cudaApiGraphicsMapResourcesEiPP20cudaGraphicsResourceP11CUstream_st
0000000000409f90 T _ZN6cudart27cudaApiGraphNodeFindInCloneEPP14CUgraphNode_stS1_P10CUgraph_st
0000000000408e70 T _ZN6cudart27cudaApiHostGetDevicePointerEPPvS0_j
000000000040d040 T _ZN6cudart27cudaApiImportExternalMemoryEPP19CUexternalMemory_stPK28cudaExternalMemoryHandleDesc
0000000000405ee0 t _ZN6cudart27cudaApiLaunchHostFuncCommonEP11CUstream_stPFvPvES2_b
0000000000408990 T _ZN6cudart27cudaApiMallocMipmappedArrayEPP18cudaMipmappedArrayPK21cudaChannelFormatDesc10cudaExtentjj
0000000000407e40 T _ZN6cudart27cudaApiMemcpy2DArrayToArrayEP9cudaArraymmPKS0_mmmm14cudaMemcpyKind
0000000000408340 T _ZN6cudart27cudaApiMemcpy2DToArrayAsyncEP9cudaArraymmPKvmmm14cudaMemcpyKindP11CUstream_st
0000000000408420 T _ZN6cudart27cudaApiMemcpy2DToArray_ptdsEP9cudaArraymmPKvmmm14cudaMemcpyKind
00000000004081a0 T _ZN6cudart27cudaApiMemcpyFromArrayAsyncEPvPK9cudaArraymmm14cudaMemcpyKindP11CUstream_st
0000000000410f90 T _ZN6cudart27cudaApiMemcpyFromArray_ptdsEPvPK9cudaArraymmm14cudaMemcpyKind
00000000004127c0 t _ZN6cudart27cudaApiMemcpyToSymbolCommonEPKvS1_mm14cudaMemcpyKindb
000000000040c550 T _ZN6cudart27cudaApiMemRangeGetAttributeEPvm21cudaMemRangeAttributePKvm
000000000040c940 T _ZN6cudart27cudaApiPointerGetAttributesEP21cudaPointerAttributesPKv
0000000000406220 T _ZN6cudart27cudaApiStreamAttachMemAsyncEP11CUstream_stPvmj
0000000000405aa0 T _ZN6cudart27cudaApiStreamGetCaptureInfoEP11CUstream_stP23cudaStreamCaptureStatusPy
0000000000406230 t _ZN6cudart27cudaApiStreamGetFlagsCommonEP11CUstream_stPjb
000000000040d490 T _ZN6cudart27cudaApiStreamWaitEvent_ptszEP11CUstream_stP10CUevent_stj
000000000040e150 T _ZN6cudart27cudaApiThreadGetCacheConfigEP13cudaFuncCache
000000000040e030 T _ZN6cudart27cudaApiThreadSetCacheConfigE13cudaFuncCache
000000000040d470 t _ZN6cudart27cudaStreamRtCallbackWrapperEP11CUstream_st14cudaError_enumPv
0000000000452560 T _ZN6cudart27cuosEventIpcCreateWithFlagsEPNS_9cuosEventEPcNS_15cuosEventMode_tEj
0000000000451130 T _ZN6cudart27cuosNumaGetNumPossibleNodesEv
0000000000451100 T _ZN6cudart27cuosPipeGetDataArrivedEventEPNS_11CUOSpipe_stEPNS_9cuosEventE
0000000000456300 T _ZN6cudart27cuosTryEnterCriticalSectionEP15pthread_mutex_t
0000000000674bc0 B _ZN6cudart27__fun_cuCtxEnablePeerAccessE
0000000000674bb8 B _ZN6cudart27__fun_cuDeviceCanAccessPeerE
0000000000674620 B _ZN6cudart27__fun_cuDeviceGetByPCIBusIdE
0000000000674c38 B _ZN6cudart27__fun_cuGLUnmapBufferObjectE
0000000000674a98 B _ZN6cudart27__fun_cuLaunchHostFunc_ptszE
00000000006746e8 B _ZN6cudart27__fun_cuModuleLoadFatBinaryE
00000000006747a0 B _ZN6cudart27__fun_cuPointerGetAttributeE
0000000000674b58 B _ZN6cudart27__fun_cuStreamGetFlags_ptszE
0000000000674970 B _ZN6cudart27__fun_cuTexRefSetAddress_v2E
0000000000674990 B _ZN6cudart27__fun_cuTexRefSetFilterModeE
0000000000675268 b _ZN6cudart27__funtmp_cuArray3DCreate_v2E
0000000000674fd0 b _ZN6cudart27__funtmp_cuCtxGetApiVersionE
0000000000674f60 b _ZN6cudart27__funtmp_cuDriverGetVersionE
0000000000675418 b _ZN6cudart27__funtmp_cuEventElapsedTimeE
00000000006753f8 b _ZN6cudart27__funtmp_cuEventRecord_ptszE
0000000000675408 b _ZN6cudart27__funtmp_cuEventSynchronizeE
0000000000675248 b _ZN6cudart27__funtmp_cuFuncGetAttributeE
0000000000675250 b _ZN6cudart27__funtmp_cuFuncSetAttributeE
0000000000675720 b _ZN6cudart27__funtmp_cuGraphAddHostNodeE
00000000006757a0 b _ZN6cudart27__funtmp_cuGraphDestroyNodeE
00000000006757c0 b _ZN6cudart27__funtmp_cuGraphExecDestroyE
00000000006757a8 b _ZN6cudart27__funtmp_cuGraphInstantiateE
00000000006757b8 b _ZN6cudart27__funtmp_cuGraphLaunch_ptszE
0000000000675760 b _ZN6cudart27__funtmp_cuGraphNodeGetTypeE
0000000000675530 b _ZN6cudart27__funtmp_cuIpcOpenMemHandleE
00000000006750a0 b _ZN6cudart27__funtmp_cuMemAllocPitch_v2E
00000000006751a8 b _ZN6cudart27__funtmp_cuMemcpy2DAsync_v2E
00000000006751c8 b _ZN6cudart27__funtmp_cuMemcpy3DAsync_v2E
00000000006751c0 b _ZN6cudart27__funtmp_cuMemcpy3D_v2_ptdsE
0000000000675110 b _ZN6cudart27__funtmp_cuMemcpyAsync_ptszE
00000000006756a0 b _ZN6cudart27__funtmp_cuMemPrefetchAsyncE
0000000000675200 b _ZN6cudart27__funtmp_cuMemsetD8_v2_ptdsE
0000000000675058 b _ZN6cudart27__funtmp_cuModuleGetSurfRefE
0000000000675460 b _ZN6cudart27__funtmp_cuStreamBatchMemOpE
00000000006754a8 b _ZN6cudart27__funtmp_cuStreamDestroy_v2E
00000000006757f0 b _ZN6cudart27__funtmp_cuStreamEndCaptureE
00000000006754e8 b _ZN6cudart27__funtmp_cuStreamQuery_ptszE
0000000000675348 b _ZN6cudart27__funtmp_cuSurfObjectCreateE
0000000000675328 b _ZN6cudart27__funtmp_cuTexObjectDestroyE
0000000000671460 D _ZN6cudart27g_etblToolsRuntimeCallbacksE
0000000000413780 t _ZN6cudart27__unimpl_cuArray3DCreate_v2EPP10CUarray_stPK26CUDA_ARRAY3D_DESCRIPTOR_st
0000000000413250 t _ZN6cudart27__unimpl_cuCtxGetApiVersionEP8CUctx_stPj
0000000000413170 t _ZN6cudart27__unimpl_cuDriverGetVersionEPi
0000000000413ae0 t _ZN6cudart27__unimpl_cuEventElapsedTimeEPfP10CUevent_stS2_
0000000000413aa0 t _ZN6cudart27__unimpl_cuEventRecord_ptszEP10CUevent_stP11CUstream_st
0000000000413ac0 t _ZN6cudart27__unimpl_cuEventSynchronizeEP10CUevent_st
0000000000413740 t _ZN6cudart27__unimpl_cuFuncGetAttributeEPi25CUfunction_attribute_enumP9CUfunc_st
0000000000413750 t _ZN6cudart27__unimpl_cuFuncSetAttributeEP9CUfunc_st25CUfunction_attribute_enumi
00000000004140f0 t _ZN6cudart27__unimpl_cuGraphAddHostNodeEPP14CUgraphNode_stP10CUgraph_stPKS1_mPK24CUDA_HOST_NODE_PARAMS_st
00000000004141f0 t _ZN6cudart27__unimpl_cuGraphDestroyNodeEP14CUgraphNode_st
0000000000414230 t _ZN6cudart27__unimpl_cuGraphExecDestroyEP14CUgraphExec_st
0000000000414200 t _ZN6cudart27__unimpl_cuGraphInstantiateEPP14CUgraphExec_stP10CUgraph_stPP14CUgraphNode_stPcm
0000000000414220 t _ZN6cudart27__unimpl_cuGraphLaunch_ptszEP14CUgraphExec_stP11CUstream_st
0000000000414170 t _ZN6cudart27__unimpl_cuGraphNodeGetTypeEP14CUgraphNode_stP20CUgraphNodeType_enum
0000000000413d10 t _ZN6cudart27__unimpl_cuIpcOpenMemHandleEPy17CUipcMemHandle_stj
00000000004133f0 t _ZN6cudart27__unimpl_cuMemAllocPitch_v2EPyPmmmj
0000000000413600 t _ZN6cudart27__unimpl_cuMemcpy2DAsync_v2EPK16CUDA_MEMCPY2D_stP11CUstream_st
0000000000413640 t _ZN6cudart27__unimpl_cuMemcpy3DAsync_v2EPK16CUDA_MEMCPY3D_stP11CUstream_st
0000000000413630 t _ZN6cudart27__unimpl_cuMemcpy3D_v2_ptdsEPK16CUDA_MEMCPY3D_st
00000000004134d0 t _ZN6cudart27__unimpl_cuMemcpyAsync_ptszEyymP11CUstream_st
0000000000413ff0 t _ZN6cudart27__unimpl_cuMemPrefetchAsyncEymiP11CUstream_st
00000000004136b0 t _ZN6cudart27__unimpl_cuMemsetD8_v2_ptdsEyhm
0000000000413360 t _ZN6cudart27__unimpl_cuModuleGetSurfRefEPP12CUsurfref_stP8CUmod_stPKc
0000000000413b70 t _ZN6cudart27__unimpl_cuStreamBatchMemOpEP11CUstream_stjP30CUstreamBatchMemOpParams_unionj
0000000000413c00 t _ZN6cudart27__unimpl_cuStreamDestroy_v2EP11CUstream_st
0000000000414290 t _ZN6cudart27__unimpl_cuStreamEndCaptureEP11CUstream_stPP10CUgraph_st
0000000000413c80 t _ZN6cudart27__unimpl_cuStreamQuery_ptszEP11CUstream_st
0000000000413940 t _ZN6cudart27__unimpl_cuSurfObjectCreateEPyPK21CUDA_RESOURCE_DESC_st
0000000000413900 t _ZN6cudart27__unimpl_cuTexObjectDestroyEy
000000000040ce00 T _ZN6cudart28cudaApiDestroyExternalMemoryEP19CUexternalMemory_st
000000000040d8c0 T _ZN6cudart28cudaApiDeviceGetP2PAttributeEPi17cudaDeviceP2PAttrii
0000000000412500 T _ZN6cudart28cudaApiMemcpyFromSymbolAsyncEPvPKvmm14cudaMemcpyKindP11CUstream_st
0000000000412630 T _ZN6cudart28cudaApiMemcpyFromSymbol_ptdsEPvPKvmm14cudaMemcpyKind
0000000000405ec0 T _ZN6cudart28cudaApiMemPrefetchAsync_ptszEPKvmiP11CUstream_st
000000000040c500 T _ZN6cudart28cudaApiMemRangeGetAttributesEPPvPmP21cudaMemRangeAttributemPKvm
000000000040d7e0 T _ZN6cudart28cudaApiStreamCreateWithFlagsEPP11CUstream_stj
0000000000405c50 T _ZN6cudart28cudaApiStreamEndCapture_ptszEP11CUstream_stPP10CUgraph_st
0000000000456160 T _ZN6cudart28cuosCondCreateWithSharedFlagEP14pthread_cond_ti
0000000000452f10 T _ZN6cudart28cuosVirtualFindFreeVaInRangeEmPvS0_m
0000000000674bc8 B _ZN6cudart28__fun_cuCtxDisablePeerAccessE
0000000000674c18 B _ZN6cudart28__fun_cuGLMapBufferObject_v2E
0000000000674e48 B _ZN6cudart28__fun_cuGraphAddDependenciesE
0000000000674cc8 B _ZN6cudart28__fun_cuGraphicsMapResourcesE
0000000000674e10 B _ZN6cudart28__fun_cuGraphNodeFindInCloneE
0000000000674a18 B _ZN6cudart28__fun_cuImportExternalMemoryE
0000000000674850 B _ZN6cudart28__fun_cuMemcpy2DUnaligned_v2E
00000000006747e8 B _ZN6cudart28__fun_cuMemcpyPeerAsync_ptszE
0000000000674d68 B _ZN6cudart28__fun_cuMemRangeGetAttributeE
00000000006748e8 B _ZN6cudart28__fun_cuMemsetD2D8Async_ptszE
0000000000674938 B _ZN6cudart28__fun_cuMipmappedArrayCreateE
00000000006747a8 B _ZN6cudart28__fun_cuPointerGetAttributesE
0000000000674ba8 B _ZN6cudart28__fun_cuStreamAttachMemAsyncE
0000000000674ec8 B _ZN6cudart28__fun_cuStreamGetCaptureInfoE
0000000000674b70 B _ZN6cudart28__fun_cuStreamWaitEvent_ptszE
00000000006749c8 B _ZN6cudart28__fun_cuTexRefGetBorderColorE
0000000000674988 B _ZN6cudart28__fun_cuTexRefSetAddressModeE
00000000006749c0 B _ZN6cudart28__fun_cuTexRefSetBorderColorE
0000000000674ff0 b _ZN6cudart28__funtmp_cuCtxGetCacheConfigE
0000000000674ff8 b _ZN6cudart28__funtmp_cuCtxSetCacheConfigE
0000000000674f70 b _ZN6cudart28__funtmp_cuDeviceGetPCIBusIdE
0000000000674f48 b _ZN6cudart28__funtmp_cuDeviceTotalMem_v2E
0000000000675748 b _ZN6cudart28__funtmp_cuGraphAddEmptyNodeE
0000000000675770 b _ZN6cudart28__funtmp_cuGraphGetRootNodesE
0000000000675538 b _ZN6cudart28__funtmp_cuIpcCloseMemHandleE
0000000000675518 b _ZN6cudart28__funtmp_cuIpcGetEventHandleE
00000000006753b8 b _ZN6cudart28__funtmp_cuLaunchKernel_ptszE
00000000006751e8 b _ZN6cudart28__funtmp_cuMemcpy3DPeerAsyncE
00000000006751e0 b _ZN6cudart28__funtmp_cuMemcpy3DPeer_ptdsE
00000000006750e0 b _ZN6cudart28__funtmp_cuMemHostUnregisterE
0000000000675040 b _ZN6cudart28__funtmp_cuModuleGetFunctionE
00000000006754c0 b _ZN6cudart28__funtmp_cuStreamAddCallbackE
0000000000675480 b _ZN6cudart28__funtmp_cuStreamGetPriorityE
0000000000675800 b _ZN6cudart28__funtmp_cuStreamIsCapturingE
00000000006754d0 b _ZN6cudart28__funtmp_cuStreamSynchronizeE
0000000000675420 b _ZN6cudart28__funtmp_cuStreamWaitValue32E
0000000000675440 b _ZN6cudart28__funtmp_cuStreamWaitValue64E
0000000000675350 b _ZN6cudart28__funtmp_cuSurfObjectDestroyE
0000000000675670 b _ZN6cudart28__funtmp_cuVDPAUCtxCreate_v2E
00000000004056d0 T _ZN6cudart28toRuntimeStreamCaptureStatusE26CUstreamCaptureStatus_enumP23cudaStreamCaptureStatus
0000000000413290 t _ZN6cudart28__unimpl_cuCtxGetCacheConfigEP17CUfunc_cache_enum
00000000004132a0 t _ZN6cudart28__unimpl_cuCtxSetCacheConfigE17CUfunc_cache_enum
0000000000413190 t _ZN6cudart28__unimpl_cuDeviceGetPCIBusIdEPcii
0000000000413140 t _ZN6cudart28__unimpl_cuDeviceTotalMem_v2EPmi
0000000000414140 t _ZN6cudart28__unimpl_cuGraphAddEmptyNodeEPP14CUgraphNode_stP10CUgraph_stPKS1_m
0000000000414190 t _ZN6cudart28__unimpl_cuGraphGetRootNodesEP10CUgraph_stPP14CUgraphNode_stPm
0000000000413d20 t _ZN6cudart28__unimpl_cuIpcCloseMemHandleEy
0000000000413ce0 t _ZN6cudart28__unimpl_cuIpcGetEventHandleEP19CUipcEventHandle_stP10CUevent_st
0000000000413a20 t _ZN6cudart28__unimpl_cuLaunchKernel_ptszEP9CUfunc_stjjjjjjjP11CUstream_stPPvS5_
0000000000413680 t _ZN6cudart28__unimpl_cuMemcpy3DPeerAsyncEPK21CUDA_MEMCPY3D_PEER_stP11CUstream_st
0000000000413670 t _ZN6cudart28__unimpl_cuMemcpy3DPeer_ptdsEPK21CUDA_MEMCPY3D_PEER_st
0000000000413470 t _ZN6cudart28__unimpl_cuMemHostUnregisterEPv
0000000000413330 t _ZN6cudart28__unimpl_cuModuleGetFunctionEPP9CUfunc_stP8CUmod_stPKc
0000000000413c30 t _ZN6cudart28__unimpl_cuStreamAddCallbackEP11CUstream_stPFvS1_14cudaError_enumPvES3_j
0000000000413bb0 t _ZN6cudart28__unimpl_cuStreamGetPriorityEP11CUstream_stPi
00000000004142b0 t _ZN6cudart28__unimpl_cuStreamIsCapturingEP11CUstream_stP26CUstreamCaptureStatus_enum
0000000000413c50 t _ZN6cudart28__unimpl_cuStreamSynchronizeEP11CUstream_st
0000000000413af0 t _ZN6cudart28__unimpl_cuStreamWaitValue32EP11CUstream_styjj
0000000000413b30 t _ZN6cudart28__unimpl_cuStreamWaitValue64EP11CUstream_stymj
0000000000413950 t _ZN6cudart28__unimpl_cuSurfObjectDestroyEy
0000000000413f90 t _ZN6cudart28__unimpl_cuVDPAUCtxCreate_v2EPP8CUctx_stjijPF9VdpStatusjjPPvE
000000000040fa40 T _ZN6cudart29cudaApiDeviceEnablePeerAccessEij
00000000004055c0 T _ZN6cudart29cudaApiEventCreateFromEGLSyncEPP10CUevent_stPvj
0000000000412160 T _ZN6cudart29cudaApiFuncSetSharedMemConfigEPKv19cudaSharedMemConfig
000000000040c840 T _ZN6cudart29cudaApiGetMipmappedArrayLevelEPP9cudaArrayPK18cudaMipmappedArrayj
000000000040b470 T _ZN6cudart29cudaApiGLMapBufferObjectAsyncEPPvjP11CUstream_st
000000000040b580 T _ZN6cudart29cudaApiGLRegisterBufferObjectEj
000000000040a1c0 T _ZN6cudart29cudaApiGraphAddChildGraphNodeEPP14CUgraphNode_stP10CUgraph_stPKS1_mS4_
000000000040e990 T _ZN6cudart29cudaApiGraphHostNodeGetParamsEP14CUgraphNode_stP18cudaHostNodeParams
000000000040e750 T _ZN6cudart29cudaApiGraphHostNodeSetParamsEP14CUgraphNode_stPK18cudaHostNodeParams
000000000040adf0 T _ZN6cudart29cudaApiGraphicsUnmapResourcesEiPP20cudaGraphicsResourceP11CUstream_st
0000000000407fe0 T _ZN6cudart29cudaApiMemcpy2DFromArrayAsyncEPvmPK9cudaArraymmmm14cudaMemcpyKindP11CUstream_st
0000000000410960 T _ZN6cudart29cudaApiMemcpy2DFromArray_ptdsEPvmPK9cudaArraymmmm14cudaMemcpyKind
0000000000407ae0 T _ZN6cudart29cudaApiMemcpy3DPeerAsync_ptszEPK21cudaMemcpy3DPeerParmsP11CUstream_st
0000000000412520 t _ZN6cudart29cudaApiMemcpyFromSymbolCommonEPvPKvmm14cudaMemcpyKindb
0000000000405df0 t _ZN6cudart29cudaApiMemPrefetchAsyncCommonEPKvmiP11CUstream_stb
0000000000409790 T _ZN6cudart29cudaApiStreamAddCallback_ptszEP11CUstream_stPFvS1_9cudaErrorPvES3_j
0000000000405bb0 t _ZN6cudart29cudaApiStreamEndCaptureCommonEP11CUstream_stPP10CUgraph_stb
0000000000406390 T _ZN6cudart29cudaApiStreamGetPriority_ptszEP11CUstream_stPi
0000000000405b90 T _ZN6cudart29cudaApiStreamIsCapturing_ptszEP11CUstream_stP23cudaStreamCaptureStatus
000000000040d5b0 T _ZN6cudart29cudaApiStreamSynchronize_ptszEP11CUstream_st
0000000000451650 T _ZN6cudart29cuosGetCurrentProcessExecPathEPPc
00000000004563e0 T _ZN6cudart29cuosInitializeCriticalSectionEP15pthread_mutex_t
0000000000454540 T _ZN6cudart29cuosNumaGetNodeIdForProcessorEj
0000000000451f40 T _ZN6cudart29cuosSocketCreateConnectedPairEPNS_10CUOSsocketES1_
00000000004510e0 T _ZN6cudart29cuosSocketGetDataArrivedEventEPNS_10CUOSsocketEPNS_9cuosEventE
0000000000674918 B _ZN6cudart29__fun_cuArrayGetDescriptor_v2E
00000000006746b8 B _ZN6cudart29__fun_cuCtxGetSharedMemConfigE
00000000006746c8 B _ZN6cudart29__fun_cuCtxSetSharedMemConfigE
0000000000674a30 B _ZN6cudart29__fun_cuDestroyExternalMemoryE
0000000000674610 B _ZN6cudart29__fun_cuDeviceGetP2PAttributeE
0000000000674658 B _ZN6cudart29__fun_cuDevicePrimaryCtxResetE
0000000000674868 B _ZN6cudart29__fun_cuMemcpy2DAsync_v2_ptszE
0000000000674888 B _ZN6cudart29__fun_cuMemcpy3DAsync_v2_ptszE
0000000000674768 B _ZN6cudart29__fun_cuMemGetAddressRange_v2E
0000000000674d60 B _ZN6cudart29__fun_cuMemPrefetchAsync_ptszE
0000000000674d70 B _ZN6cudart29__fun_cuMemRangeGetAttributesE
0000000000674948 B _ZN6cudart29__fun_cuMipmappedArrayDestroyE
0000000000674b20 B _ZN6cudart29__fun_cuStreamBatchMemOp_ptszE
0000000000674e98 B _ZN6cudart29__fun_cuStreamBeginCapture_v2E
0000000000674eb0 B _ZN6cudart29__fun_cuStreamEndCapture_ptszE
0000000000674978 B _ZN6cudart29__fun_cuTexRefSetAddress2D_v3E
0000000000674f50 b _ZN6cudart29__funtmp_cuDeviceGetAttributeE
0000000000675238 b _ZN6cudart29__funtmp_cuFuncSetCacheConfigE
00000000006756d8 b _ZN6cudart29__funtmp_cuGraphAddKernelNodeE
00000000006756f0 b _ZN6cudart29__funtmp_cuGraphAddMemcpyNodeE
0000000000675708 b _ZN6cudart29__funtmp_cuGraphAddMemsetNodeE
0000000000675520 b _ZN6cudart29__funtmp_cuIpcOpenEventHandleE
0000000000675188 b _ZN6cudart29__funtmp_cuMemcpyDtoDAsync_v2E
0000000000675180 b _ZN6cudart29__funtmp_cuMemcpyDtoD_v2_ptdsE
0000000000675168 b _ZN6cudart29__funtmp_cuMemcpyDtoHAsync_v2E
0000000000675160 b _ZN6cudart29__funtmp_cuMemcpyDtoH_v2_ptdsE
0000000000675148 b _ZN6cudart29__funtmp_cuMemcpyHtoDAsync_v2E
0000000000675140 b _ZN6cudart29__funtmp_cuMemcpyHtoD_v2_ptdsE
00000000006750d8 b _ZN6cudart29__funtmp_cuMemHostRegister_v2E
0000000000675220 b _ZN6cudart29__funtmp_cuMemsetD2D8_v2_ptdsE
0000000000675210 b _ZN6cudart29__funtmp_cuMemsetD8Async_ptszE
0000000000675048 b _ZN6cudart29__funtmp_cuModuleGetGlobal_v2E
0000000000675650 b _ZN6cudart29__funtmp_cuProfilerInitializeE
00000000006757d0 b _ZN6cudart29__funtmp_cuStreamBeginCaptureE
0000000000675430 b _ZN6cudart29__funtmp_cuStreamWriteValue32E
0000000000675450 b _ZN6cudart29__funtmp_cuStreamWriteValue64E
0000000000413150 t _ZN6cudart29__unimpl_cuDeviceGetAttributeEPi23CUdevice_attribute_enumi
0000000000413720 t _ZN6cudart29__unimpl_cuFuncSetCacheConfigEP9CUfunc_st17CUfunc_cache_enum
0000000000414060 t _ZN6cudart29__unimpl_cuGraphAddKernelNodeEPP14CUgraphNode_stP10CUgraph_stPKS1_mPK26CUDA_KERNEL_NODE_PARAMS_st
0000000000414090 t _ZN6cudart29__unimpl_cuGraphAddMemcpyNodeEPP14CUgraphNode_stP10CUgraph_stPKS1_mPK16CUDA_MEMCPY3D_stP8CUctx_st
00000000004140c0 t _ZN6cudart29__unimpl_cuGraphAddMemsetNodeEPP14CUgraphNode_stP10CUgraph_stPKS1_mPK26CUDA_MEMSET_NODE_PARAMS_stP8CUctx_st
0000000000413cf0 t _ZN6cudart29__unimpl_cuIpcOpenEventHandleEPP10CUevent_st19CUipcEventHandle_st
00000000004135c0 t _ZN6cudart29__unimpl_cuMemcpyDtoDAsync_v2EyymP11CUstream_st
00000000004135b0 t _ZN6cudart29__unimpl_cuMemcpyDtoD_v2_ptdsEyym
0000000000413580 t _ZN6cudart29__unimpl_cuMemcpyDtoHAsync_v2EPvymP11CUstream_st
0000000000413570 t _ZN6cudart29__unimpl_cuMemcpyDtoH_v2_ptdsEPvym
0000000000413540 t _ZN6cudart29__unimpl_cuMemcpyHtoDAsync_v2EyPKvmP11CUstream_st
0000000000413530 t _ZN6cudart29__unimpl_cuMemcpyHtoD_v2_ptdsEyPKvm
0000000000413460 t _ZN6cudart29__unimpl_cuMemHostRegister_v2EPvmj
00000000004136f0 t _ZN6cudart29__unimpl_cuMemsetD2D8_v2_ptdsEymhmm
00000000004136d0 t _ZN6cudart29__unimpl_cuMemsetD8Async_ptszEyhmP11CUstream_st
0000000000413340 t _ZN6cudart29__unimpl_cuModuleGetGlobal_v2EPyPmP8CUmod_stPKc
0000000000413f50 t _ZN6cudart29__unimpl_cuProfilerInitializeEPKcS1_i
0000000000414250 t _ZN6cudart29__unimpl_cuStreamBeginCaptureEP11CUstream_st
0000000000413b10 t _ZN6cudart29__unimpl_cuStreamWriteValue32EP11CUstream_styjj
0000000000413b50 t _ZN6cudart29__unimpl_cuStreamWriteValue64EP11CUstream_stymj
000000000040f970 T _ZN6cudart30cudaApiDeviceDisablePeerAccessEi
000000000040b200 T _ZN6cudart30cudaApiGraphicsGLRegisterImageEPP20cudaGraphicsResourcejjj
0000000000409b70 T _ZN6cudart30cudaApiGraphRemoveDependenciesEP10CUgraph_stPKP14CUgraphNode_stS5_m
000000000040ccb0 T _ZN6cudart30cudaApiImportExternalSemaphoreEPP22CUexternalSemaphore_stPK31cudaExternalSemaphoreHandleDesc
0000000000411e40 T _ZN6cudart30cudaApiLaunchCooperativeKernelEPKv4dim3S2_PPvmP11CUstream_st
00000000004078b0 t _ZN6cudart30cudaApiMemcpy3DPeerAsyncCommonEPK21cudaMemcpy3DPeerParmsP11CUstream_stb
0000000000407f10 T _ZN6cudart30cudaApiMemcpyArrayToArray_ptdsEP9cudaArraymmPKS0_mmm14cudaMemcpyKind
0000000000410b20 T _ZN6cudart30cudaApiMemcpyToArrayAsync_ptszEP9cudaArraymmPKvm14cudaMemcpyKindP11CUstream_st
0000000000409690 t _ZN6cudart30cudaApiStreamAddCallbackCommonEP11CUstream_stPFvS1_9cudaErrorPvES3_jb
0000000000405d10 T _ZN6cudart30cudaApiStreamBeginCapture_ptszEP11CUstream_st21cudaStreamCaptureMode
00000000004062f0 t _ZN6cudart30cudaApiStreamGetPriorityCommonEP11CUstream_stPib
0000000000405ab0 t _ZN6cudart30cudaApiStreamIsCapturingCommonEP11CUstream_stP23cudaStreamCaptureStatusb
0000000000452b10 T _ZN6cudart30cuosInterlockedCompareExchangeEPVjjj
0000000000674638 B _ZN6cudart30__fun_cuDevicePrimaryCtxRetainE
00000000006748f8 B _ZN6cudart30__fun_cuFuncSetSharedMemConfigE
0000000000674c10 B _ZN6cudart30__fun_cuGLRegisterBufferObjectE
0000000000674df0 B _ZN6cudart30__fun_cuGraphAddChildGraphNodeE
0000000000674de0 B _ZN6cudart30__fun_cuGraphHostNodeGetParamsE
0000000000674de8 B _ZN6cudart30__fun_cuGraphHostNodeSetParamsE
0000000000674cd8 B _ZN6cudart30__fun_cuGraphicsUnmapResourcesE
00000000006748a8 B _ZN6cudart30__fun_cuMemcpy3DPeerAsync_ptszE
0000000000674940 B _ZN6cudart30__fun_cuMipmappedArrayGetLevelE
0000000000674b80 B _ZN6cudart30__fun_cuStreamAddCallback_ptszE
0000000000674b40 B _ZN6cudart30__fun_cuStreamGetPriority_ptszE
0000000000674ec0 B _ZN6cudart30__fun_cuStreamIsCapturing_ptszE
0000000000674b90 B _ZN6cudart30__fun_cuStreamSynchronize_ptszE
0000000000674ae0 B _ZN6cudart30__fun_cuStreamWaitValue32_ptszE
0000000000674b00 B _ZN6cudart30__fun_cuStreamWaitValue64_ptszE
00000000006749b0 B _ZN6cudart30__fun_cuTexRefSetMaxAnisotropyE
0000000000675508 b _ZN6cudart30__funtmp_cuCtxEnablePeerAccessE
0000000000675500 b _ZN6cudart30__funtmp_cuDeviceCanAccessPeerE
0000000000674f68 b _ZN6cudart30__funtmp_cuDeviceGetByPCIBusIdE
0000000000675580 b _ZN6cudart30__funtmp_cuGLUnmapBufferObjectE
00000000006753e0 b _ZN6cudart30__funtmp_cuLaunchHostFunc_ptszE
0000000000675030 b _ZN6cudart30__funtmp_cuModuleLoadFatBinaryE
00000000006750e8 b _ZN6cudart30__funtmp_cuPointerGetAttributeE
00000000006754a0 b _ZN6cudart30__funtmp_cuStreamGetFlags_ptszE
00000000006752b8 b _ZN6cudart30__funtmp_cuTexRefSetAddress_v2E
00000000006752d8 b _ZN6cudart30__funtmp_cuTexRefSetFilterModeE
0000000000413cc0 t _ZN6cudart30__unimpl_cuCtxEnablePeerAccessEP8CUctx_stj
0000000000413cb0 t _ZN6cudart30__unimpl_cuDeviceCanAccessPeerEPiii
0000000000413180 t _ZN6cudart30__unimpl_cuDeviceGetByPCIBusIdEPiPKc
0000000000413db0 t _ZN6cudart30__unimpl_cuGLUnmapBufferObjectEj
0000000000413a70 t _ZN6cudart30__unimpl_cuLaunchHostFunc_ptszEP11CUstream_stPFvPvES2_
0000000000413310 t _ZN6cudart30__unimpl_cuModuleLoadFatBinaryEPP8CUmod_stPKv
0000000000413480 t _ZN6cudart30__unimpl_cuPointerGetAttributeEPvjy
0000000000413bf0 t _ZN6cudart30__unimpl_cuStreamGetFlags_ptszEP11CUstream_stPj
0000000000413820 t _ZN6cudart30__unimpl_cuTexRefSetAddress_v2EPmP11CUtexref_stym
0000000000413860 t _ZN6cudart30__unimpl_cuTexRefSetFilterModeEP11CUtexref_st18CUfilter_mode_enum
000000000040cc50 T _ZN6cudart31cudaApiDestroyExternalSemaphoreEP22CUexternalSemaphore_st
000000000040e090 T _ZN6cudart31cudaApiDeviceGetSharedMemConfigEP19cudaSharedMemConfig
000000000040df70 T _ZN6cudart31cudaApiDeviceSetSharedMemConfigE19cudaSharedMemConfig
000000000040c3f0 T _ZN6cudart31cudaApiEGLStreamConsumerConnectEPP24CUeglStreamConnection_stPv
000000000040c130 T _ZN6cudart31cudaApiEGLStreamProducerConnectEPP24CUeglStreamConnection_stPvii
000000000040b390 T _ZN6cudart31cudaApiGLUnmapBufferObjectAsyncEjP11CUstream_st
000000000040b320 T _ZN6cudart31cudaApiGLUnregisterBufferObjectEj
000000000040c470 T _ZN6cudart31cudaApiGraphicsEGLRegisterImageEPP20cudaGraphicsResourcePvj
000000000040b170 T _ZN6cudart31cudaApiGraphicsGLRegisterBufferEPP20cudaGraphicsResourcejj
00000000004101e0 T _ZN6cudart31cudaApiGraphKernelNodeGetParamsEP14CUgraphNode_stP20cudaKernelNodeParams
0000000000412ea0 T _ZN6cudart31cudaApiGraphKernelNodeSetParamsEP14CUgraphNode_stPK20cudaKernelNodeParams
000000000040a3c0 T _ZN6cudart31cudaApiGraphMemcpyNodeGetParamsEP14CUgraphNode_stP17cudaMemcpy3DParms
000000000040a2f0 T _ZN6cudart31cudaApiGraphMemcpyNodeSetParamsEP14CUgraphNode_stPK17cudaMemcpy3DParms
000000000040ff40 T _ZN6cudart31cudaApiGraphMemsetNodeGetParamsEP14CUgraphNode_stP16cudaMemsetParams
000000000040a270 T _ZN6cudart31cudaApiGraphMemsetNodeSetParamsEP14CUgraphNode_stPK16cudaMemsetParams
0000000000409d40 T _ZN6cudart31cudaApiGraphNodeGetDependenciesEP14CUgraphNode_stPS1_Pm
0000000000412780 T _ZN6cudart31cudaApiMemcpyToSymbolAsync_ptszEPKvS1_mm14cudaMemcpyKindP11CUstream_st
0000000000405c70 t _ZN6cudart31cudaApiStreamBeginCaptureCommonEP11CUstream_st21cudaStreamCaptureModeb
000000000040d750 T _ZN6cudart31cudaApiStreamCreateWithPriorityEPP11CUstream_stji
0000000000674928 B _ZN6cudart31__fun_cuArray3DGetDescriptor_v2E
0000000000674640 B _ZN6cudart31__fun_cuDevicePrimaryCtxReleaseE
0000000000674c58 B _ZN6cudart31__fun_cuGraphicsGLRegisterImageE
0000000000674e50 B _ZN6cudart31__fun_cuGraphRemoveDependenciesE
0000000000674a38 B _ZN6cudart31__fun_cuImportExternalSemaphoreE
0000000000674a78 B _ZN6cudart31__fun_cuLaunchCooperativeKernelE
0000000000674848 B _ZN6cudart31__fun_cuMemcpyDtoDAsync_v2_ptszE
0000000000674828 B _ZN6cudart31__fun_cuMemcpyDtoHAsync_v2_ptszE
0000000000674808 B _ZN6cudart31__fun_cuMemcpyHtoDAsync_v2_ptszE
0000000000674e90 B _ZN6cudart31__fun_cuStreamBeginCapture_ptszE
0000000000674af0 B _ZN6cudart31__fun_cuStreamWriteValue32_ptszE
0000000000674b10 B _ZN6cudart31__fun_cuStreamWriteValue64_ptszE
00000000006749f0 B _ZN6cudart31__fun_cuTexObjectGetTextureDescE
0000000000674968 B _ZN6cudart31__fun_cuTexRefSetMipmappedArrayE
0000000000675510 b _ZN6cudart31__funtmp_cuCtxDisablePeerAccessE
0000000000675560 b _ZN6cudart31__funtmp_cuGLMapBufferObject_v2E
0000000000675790 b _ZN6cudart31__funtmp_cuGraphAddDependenciesE
0000000000675610 b _ZN6cudart31__funtmp_cuGraphicsMapResourcesE
0000000000675758 b _ZN6cudart31__funtmp_cuGraphNodeFindInCloneE
0000000000675360 b _ZN6cudart31__funtmp_cuImportExternalMemoryE
0000000000675198 b _ZN6cudart31__funtmp_cuMemcpy2DUnaligned_v2E
0000000000675130 b _ZN6cudart31__funtmp_cuMemcpyPeerAsync_ptszE
00000000006756b0 b _ZN6cudart31__funtmp_cuMemRangeGetAttributeE
0000000000675230 b _ZN6cudart31__funtmp_cuMemsetD2D8Async_ptszE
0000000000675280 b _ZN6cudart31__funtmp_cuMipmappedArrayCreateE
00000000006750f0 b _ZN6cudart31__funtmp_cuPointerGetAttributesE
00000000006754f0 b _ZN6cudart31__funtmp_cuStreamAttachMemAsyncE
0000000000675810 b _ZN6cudart31__funtmp_cuStreamGetCaptureInfoE
00000000006754b8 b _ZN6cudart31__funtmp_cuStreamWaitEvent_ptszE
0000000000675310 b _ZN6cudart31__funtmp_cuTexRefGetBorderColorE
00000000006752d0 b _ZN6cudart31__funtmp_cuTexRefSetAddressModeE
0000000000675308 b _ZN6cudart31__funtmp_cuTexRefSetBorderColorE
0000000000413cd0 t _ZN6cudart31__unimpl_cuCtxDisablePeerAccessEP8CUctx_st
0000000000413d70 t _ZN6cudart31__unimpl_cuGLMapBufferObject_v2EPyPmj
00000000004141d0 t _ZN6cudart31__unimpl_cuGraphAddDependenciesEP10CUgraph_stPKP14CUgraphNode_stS5_m
0000000000413ed0 t _ZN6cudart31__unimpl_cuGraphicsMapResourcesEjPP21CUgraphicsResource_stP11CUstream_st
0000000000414160 t _ZN6cudart31__unimpl_cuGraphNodeFindInCloneEPP14CUgraphNode_stS1_P10CUgraph_st
0000000000413970 t _ZN6cudart31__unimpl_cuImportExternalMemoryEPP14CUextMemory_stPK35CUDA_EXTERNAL_MEMORY_HANDLE_DESC_st
00000000004135e0 t _ZN6cudart31__unimpl_cuMemcpy2DUnaligned_v2EPK16CUDA_MEMCPY2D_st
0000000000413510 t _ZN6cudart31__unimpl_cuMemcpyPeerAsync_ptszEyP8CUctx_styS1_mP11CUstream_st
0000000000414010 t _ZN6cudart31__unimpl_cuMemRangeGetAttributeEPvm26CUmem_range_attribute_enumym
0000000000413710 t _ZN6cudart31__unimpl_cuMemsetD2D8Async_ptszEymhmmP11CUstream_st
00000000004137b0 t _ZN6cudart31__unimpl_cuMipmappedArrayCreateEPP19CUmipmappedArray_stPK26CUDA_ARRAY3D_DESCRIPTOR_stj
0000000000413490 t _ZN6cudart31__unimpl_cuPointerGetAttributesEjP24CUpointer_attribute_enumPPvy
0000000000413c90 t _ZN6cudart31__unimpl_cuStreamAttachMemAsyncEP11CUstream_stymj
00000000004142d0 t _ZN6cudart31__unimpl_cuStreamGetCaptureInfoEP11CUstream_stP26CUstreamCaptureStatus_enumPy
0000000000413c20 t _ZN6cudart31__unimpl_cuStreamWaitEvent_ptszEP11CUstream_stP10CUevent_stj
00000000004138d0 t _ZN6cudart31__unimpl_cuTexRefGetBorderColorEPfP11CUtexref_st
0000000000413850 t _ZN6cudart31__unimpl_cuTexRefSetAddressModeEP11CUtexref_sti19CUaddress_mode_enum
00000000004138c0 t _ZN6cudart31__unimpl_cuTexRefSetBorderColorEP11CUtexref_stPf
00000000004118f0 T _ZN6cudart32cudaApiGetTextureAlignmentOffsetEPmPK16textureReference
000000000040b2a0 T _ZN6cudart32cudaApiGLSetBufferObjectMapFlagsEjj
00000000004102f0 T _ZN6cudart32cudaApiMemcpy2DArrayToArray_ptdsEP9cudaArraymmPKS0_mmmm14cudaMemcpyKind
0000000000410600 T _ZN6cudart32cudaApiMemcpy2DToArrayAsync_ptszEP9cudaArraymmPKvmmm14cudaMemcpyKindP11CUstream_st
0000000000410890 T _ZN6cudart32cudaApiMemcpyFromArrayAsync_ptszEPvPK9cudaArraymmm14cudaMemcpyKindP11CUstream_st
0000000000412650 t _ZN6cudart32cudaApiMemcpyToSymbolAsyncCommonEPKvS1_mm14cudaMemcpyKindP11CUstream_stb
0000000000406210 T _ZN6cudart32cudaApiStreamAttachMemAsync_ptszEP11CUstream_stPvmj
0000000000405a90 T _ZN6cudart32cudaApiStreamGetCaptureInfo_ptszEP11CUstream_stP23cudaStreamCaptureStatusPy
0000000000452af0 T _ZN6cudart32cuosInterlockedCompareExchange64EPVyyy
0000000000674a60 B _ZN6cudart32__fun_cuDestroyExternalSemaphoreE
0000000000674650 B _ZN6cudart32__fun_cuDevicePrimaryCtxGetStateE
0000000000674648 B _ZN6cudart32__fun_cuDevicePrimaryCtxSetFlagsE
0000000000674c70 B _ZN6cudart32__fun_cuEGLStreamConsumerConnectE
0000000000674c90 B _ZN6cudart32__fun_cuEGLStreamProducerConnectE
0000000000674c40 B _ZN6cudart32__fun_cuGLUnmapBufferObjectAsyncE
0000000000674c48 B _ZN6cudart32__fun_cuGLUnregisterBufferObjectE
0000000000674c68 B _ZN6cudart32__fun_cuGraphicsEGLRegisterImageE
0000000000674c60 B _ZN6cudart32__fun_cuGraphicsGLRegisterBufferE
0000000000674d98 B _ZN6cudart32__fun_cuGraphKernelNodeGetParamsE
0000000000674da0 B _ZN6cudart32__fun_cuGraphKernelNodeSetParamsE
0000000000674db0 B _ZN6cudart32__fun_cuGraphMemcpyNodeGetParamsE
0000000000674db8 B _ZN6cudart32__fun_cuGraphMemcpyNodeSetParamsE
0000000000674dc8 B _ZN6cudart32__fun_cuGraphMemsetNodeGetParamsE
0000000000674dd0 B _ZN6cudart32__fun_cuGraphMemsetNodeSetParamsE
0000000000674e38 B _ZN6cudart32__fun_cuGraphNodeGetDependenciesE
0000000000674b30 B _ZN6cudart32__fun_cuStreamCreateWithPriorityE
00000000006749e8 B _ZN6cudart32__fun_cuTexObjectGetResourceDescE
00000000006749a0 B _ZN6cudart32__fun_cuTexRefSetMipmapLevelBiasE
0000000000675260 b _ZN6cudart32__funtmp_cuArrayGetDescriptor_v2E
0000000000675000 b _ZN6cudart32__funtmp_cuCtxGetSharedMemConfigE
0000000000675010 b _ZN6cudart32__funtmp_cuCtxSetSharedMemConfigE
0000000000675378 b _ZN6cudart32__funtmp_cuDestroyExternalMemoryE
0000000000674f58 b _ZN6cudart32__funtmp_cuDeviceGetP2PAttributeE
0000000000674fa0 b _ZN6cudart32__funtmp_cuDevicePrimaryCtxResetE
00000000006751b0 b _ZN6cudart32__funtmp_cuMemcpy2DAsync_v2_ptszE
00000000006751d0 b _ZN6cudart32__funtmp_cuMemcpy3DAsync_v2_ptszE
00000000006750b0 b _ZN6cudart32__funtmp_cuMemGetAddressRange_v2E
00000000006756a8 b _ZN6cudart32__funtmp_cuMemPrefetchAsync_ptszE
00000000006756b8 b _ZN6cudart32__funtmp_cuMemRangeGetAttributesE
0000000000675290 b _ZN6cudart32__funtmp_cuMipmappedArrayDestroyE
0000000000675468 b _ZN6cudart32__funtmp_cuStreamBatchMemOp_ptszE
00000000006757e0 b _ZN6cudart32__funtmp_cuStreamBeginCapture_v2E
00000000006757f8 b _ZN6cudart32__funtmp_cuStreamEndCapture_ptszE
00000000006752c0 b _ZN6cudart32__funtmp_cuTexRefSetAddress2D_v3E
0000000000413770 t _ZN6cudart32__unimpl_cuArrayGetDescriptor_v2EP24CUDA_ARRAY_DESCRIPTOR_stP10CUarray_st
00000000004132b0 t _ZN6cudart32__unimpl_cuCtxGetSharedMemConfigEP19CUsharedconfig_enum
00000000004132d0 t _ZN6cudart32__unimpl_cuCtxSetSharedMemConfigE19CUsharedconfig_enum
00000000004139a0 t _ZN6cudart32__unimpl_cuDestroyExternalMemoryEP14CUextMemory_st
0000000000413160 t _ZN6cudart32__unimpl_cuDeviceGetP2PAttributeEPi26CUdevice_P2PAttribute_enumii
00000000004131f0 t _ZN6cudart32__unimpl_cuDevicePrimaryCtxResetEi
0000000000413610 t _ZN6cudart32__unimpl_cuMemcpy2DAsync_v2_ptszEPK16CUDA_MEMCPY2D_stP11CUstream_st
0000000000413650 t _ZN6cudart32__unimpl_cuMemcpy3DAsync_v2_ptszEPK16CUDA_MEMCPY3D_stP11CUstream_st
0000000000413410 t _ZN6cudart32__unimpl_cuMemGetAddressRange_v2EPyPmy
0000000000414000 t _ZN6cudart32__unimpl_cuMemPrefetchAsync_ptszEymiP11CUstream_st
0000000000414020 t _ZN6cudart32__unimpl_cuMemRangeGetAttributesEPPvPmP26CUmem_range_attribute_enummym
00000000004137d0 t _ZN6cudart32__unimpl_cuMipmappedArrayDestroyEP19CUmipmappedArray_st
0000000000413b80 t _ZN6cudart32__unimpl_cuStreamBatchMemOp_ptszEP11CUstream_stjP30CUstreamBatchMemOpParams_unionj
0000000000414270 t _ZN6cudart32__unimpl_cuStreamBeginCapture_v2EP11CUstream_st24CUstreamCaptureMode_enum
00000000004142a0 t _ZN6cudart32__unimpl_cuStreamEndCapture_ptszEP11CUstream_stPP10CUgraph_st
0000000000413830 t _ZN6cudart32__unimpl_cuTexRefSetAddress2D_v3EP11CUtexref_stPK24CUDA_ARRAY_DESCRIPTOR_stym
000000000040afa0 T _ZN6cudart33cudaApiGraphicsUnregisterResourceEP20cudaGraphicsResource
0000000000409cb0 T _ZN6cudart33cudaApiGraphNodeGetDependentNodesEP14CUgraphNode_stPS1_Pm
00000000004124e0 T _ZN6cudart33cudaApiMemcpyFromSymbolAsync_ptszEPvPKvmm14cudaMemcpyKindP11CUstream_st
0000000000406140 t _ZN6cudart33cudaApiStreamAttachMemAsyncCommonEP11CUstream_stPvmjb
00000000004059a0 t _ZN6cudart33cudaApiStreamGetCaptureInfoCommonEP11CUstream_stP23cudaStreamCaptureStatusPyb
00000000006746c0 B _ZN6cudart33__fun_cuCtxGetStreamPriorityRangeE
0000000000674c28 B _ZN6cudart33__fun_cuGLMapBufferObjectAsync_v2E
0000000000674c20 B _ZN6cudart33__fun_cuGLMapBufferObject_v2_ptdsE
0000000000674c50 B _ZN6cudart33__fun_cuGLSetBufferObjectMapFlagsE
0000000000674cd0 B _ZN6cudart33__fun_cuGraphicsMapResources_ptszE
0000000000674858 B _ZN6cudart33__fun_cuMemcpy2DUnaligned_v2_ptdsE
0000000000674bb0 B _ZN6cudart33__fun_cuStreamAttachMemAsync_ptszE
0000000000674ed0 B _ZN6cudart33__fun_cuStreamGetCaptureInfo_ptszE
0000000000674a10 B _ZN6cudart33__fun_cuSurfObjectGetResourceDescE
0000000000674998 B _ZN6cudart33__fun_cuTexRefSetMipmapFilterModeE
00000000006749a8 B _ZN6cudart33__fun_cuTexRefSetMipmapLevelClampE
0000000000674f80 b _ZN6cudart33__funtmp_cuDevicePrimaryCtxRetainE
0000000000675240 b _ZN6cudart33__funtmp_cuFuncSetSharedMemConfigE
0000000000675558 b _ZN6cudart33__funtmp_cuGLRegisterBufferObjectE
0000000000675738 b _ZN6cudart33__funtmp_cuGraphAddChildGraphNodeE
0000000000675728 b _ZN6cudart33__funtmp_cuGraphHostNodeGetParamsE
0000000000675730 b _ZN6cudart33__funtmp_cuGraphHostNodeSetParamsE
0000000000675620 b _ZN6cudart33__funtmp_cuGraphicsUnmapResourcesE
00000000006751f0 b _ZN6cudart33__funtmp_cuMemcpy3DPeerAsync_ptszE
0000000000675288 b _ZN6cudart33__funtmp_cuMipmappedArrayGetLevelE
00000000006754c8 b _ZN6cudart33__funtmp_cuStreamAddCallback_ptszE
0000000000675488 b _ZN6cudart33__funtmp_cuStreamGetPriority_ptszE
0000000000675808 b _ZN6cudart33__funtmp_cuStreamIsCapturing_ptszE
00000000006754d8 b _ZN6cudart33__funtmp_cuStreamSynchronize_ptszE
0000000000675428 b _ZN6cudart33__funtmp_cuStreamWaitValue32_ptszE
0000000000675448 b _ZN6cudart33__funtmp_cuStreamWaitValue64_ptszE
00000000006752f8 b _ZN6cudart33__funtmp_cuTexRefSetMaxAnisotropyE
00000000004131b0 t _ZN6cudart33__unimpl_cuDevicePrimaryCtxRetainEPP8CUctx_sti
0000000000413730 t _ZN6cudart33__unimpl_cuFuncSetSharedMemConfigEP9CUfunc_st19CUsharedconfig_enum
0000000000413d60 t _ZN6cudart33__unimpl_cuGLRegisterBufferObjectEj
0000000000414120 t _ZN6cudart33__unimpl_cuGraphAddChildGraphNodeEPP14CUgraphNode_stP10CUgraph_stPKS1_mS4_
0000000000414100 t _ZN6cudart33__unimpl_cuGraphHostNodeGetParamsEP14CUgraphNode_stP24CUDA_HOST_NODE_PARAMS_st
0000000000414110 t _ZN6cudart33__unimpl_cuGraphHostNodeSetParamsEP14CUgraphNode_stPK24CUDA_HOST_NODE_PARAMS_st
0000000000413ef0 t _ZN6cudart33__unimpl_cuGraphicsUnmapResourcesEjPP21CUgraphicsResource_stP11CUstream_st
0000000000413690 t _ZN6cudart33__unimpl_cuMemcpy3DPeerAsync_ptszEPK21CUDA_MEMCPY3D_PEER_stP11CUstream_st
00000000004137c0 t _ZN6cudart33__unimpl_cuMipmappedArrayGetLevelEPP10CUarray_stP19CUmipmappedArray_stj
0000000000413c40 t _ZN6cudart33__unimpl_cuStreamAddCallback_ptszEP11CUstream_stPFvS1_14cudaError_enumPvES3_j
0000000000413bc0 t _ZN6cudart33__unimpl_cuStreamGetPriority_ptszEP11CUstream_stPi
00000000004142c0 t _ZN6cudart33__unimpl_cuStreamIsCapturing_ptszEP11CUstream_stP26CUstreamCaptureStatus_enum
0000000000413c60 t _ZN6cudart33__unimpl_cuStreamSynchronize_ptszEP11CUstream_st
0000000000413b00 t _ZN6cudart33__unimpl_cuStreamWaitValue32_ptszEP11CUstream_styjj
0000000000413b40 t _ZN6cudart33__unimpl_cuStreamWaitValue64_ptszEP11CUstream_stymj
00000000004138a0 t _ZN6cudart33__unimpl_cuTexRefSetMaxAnisotropyEP11CUtexref_stj
0000000000411630 T _ZN6cudart34cudaApiBindTextureToMipmappedArrayEPK16textureReferencePK18cudaMipmappedArrayPK21cudaChannelFormatDesc
000000000040c300 T _ZN6cudart34cudaApiEGLStreamConsumerDisconnectEPP24CUeglStreamConnection_st
000000000040c0d0 T _ZN6cudart34cudaApiEGLStreamProducerDisconnectEPP24CUeglStreamConnection_st
000000000040a8e0 T _ZN6cudart34cudaApiGetTextureObjectTextureDescEP15cudaTextureDescy
000000000040a140 T _ZN6cudart34cudaApiGraphChildGraphNodeGetGraphEP14CUgraphNode_stPP10CUgraph_st
000000000040af10 T _ZN6cudart34cudaApiGraphicsResourceSetMapFlagsEP20cudaGraphicsResourcej
00000000004106e0 T _ZN6cudart34cudaApiMemcpy2DFromArrayAsync_ptszEPvmPK9cudaArraymmmm14cudaMemcpyKindP11CUstream_st
00000000004123c0 t _ZN6cudart34cudaApiMemcpyFromSymbolAsyncCommonEPvPKvmm14cudaMemcpyKindP11CUstream_stb
00000000004093e0 T _ZN6cudart34cudaApiWaitExternalSemaphoresAsyncEPKP22CUexternalSemaphore_stPK31cudaExternalSemaphoreWaitParamsjP11CUstream_st
0000000000674cc0 B _ZN6cudart34__fun_cuGraphicsUnregisterResourceE
0000000000674e40 B _ZN6cudart34__fun_cuGraphNodeGetDependentNodesE
0000000000674780 B _ZN6cudart34__fun_cuMemHostGetDevicePointer_v2E
0000000000674ea0 B _ZN6cudart34__fun_cuStreamBeginCapture_v2_ptszE
0000000000675270 b _ZN6cudart34__funtmp_cuArray3DGetDescriptor_v2E
0000000000674f88 b _ZN6cudart34__funtmp_cuDevicePrimaryCtxReleaseE
00000000006755a0 b _ZN6cudart34__funtmp_cuGraphicsGLRegisterImageE
0000000000675798 b _ZN6cudart34__funtmp_cuGraphRemoveDependenciesE
0000000000675380 b _ZN6cudart34__funtmp_cuImportExternalSemaphoreE
00000000006753c0 b _ZN6cudart34__funtmp_cuLaunchCooperativeKernelE
0000000000675190 b _ZN6cudart34__funtmp_cuMemcpyDtoDAsync_v2_ptszE
0000000000675170 b _ZN6cudart34__funtmp_cuMemcpyDtoHAsync_v2_ptszE
0000000000675150 b _ZN6cudart34__funtmp_cuMemcpyHtoDAsync_v2_ptszE
00000000006757d8 b _ZN6cudart34__funtmp_cuStreamBeginCapture_ptszE
0000000000675438 b _ZN6cudart34__funtmp_cuStreamWriteValue32_ptszE
0000000000675458 b _ZN6cudart34__funtmp_cuStreamWriteValue64_ptszE
0000000000675338 b _ZN6cudart34__funtmp_cuTexObjectGetTextureDescE
00000000006752b0 b _ZN6cudart34__funtmp_cuTexRefSetMipmappedArrayE
0000000000413790 t _ZN6cudart34__unimpl_cuArray3DGetDescriptor_v2EP26CUDA_ARRAY3D_DESCRIPTOR_stP10CUarray_st
00000000004131c0 t _ZN6cudart34__unimpl_cuDevicePrimaryCtxReleaseEi
0000000000413df0 t _ZN6cudart34__unimpl_cuGraphicsGLRegisterImageEPP21CUgraphicsResource_stjjj
00000000004141e0 t _ZN6cudart34__unimpl_cuGraphRemoveDependenciesEP10CUgraph_stPKP14CUgraphNode_stS5_m
00000000004139b0 t _ZN6cudart34__unimpl_cuImportExternalSemaphoreEPP17CUextSemaphore_stPK38CUDA_EXTERNAL_SEMAPHORE_HANDLE_DESC_st
0000000000413a30 t _ZN6cudart34__unimpl_cuLaunchCooperativeKernelEP9CUfunc_stjjjjjjjP11CUstream_stPPv
00000000004135d0 t _ZN6cudart34__unimpl_cuMemcpyDtoDAsync_v2_ptszEyymP11CUstream_st
0000000000413590 t _ZN6cudart34__unimpl_cuMemcpyDtoHAsync_v2_ptszEPvymP11CUstream_st
0000000000413550 t _ZN6cudart34__unimpl_cuMemcpyHtoDAsync_v2_ptszEyPKvmP11CUstream_st
0000000000414260 t _ZN6cudart34__unimpl_cuStreamBeginCapture_ptszEP11CUstream_st
0000000000413b20 t _ZN6cudart34__unimpl_cuStreamWriteValue32_ptszEP11CUstream_styjj
0000000000413b60 t _ZN6cudart34__unimpl_cuStreamWriteValue64_ptszEP11CUstream_stymj
0000000000413920 t _ZN6cudart34__unimpl_cuTexObjectGetTextureDescEP20CUDA_TEXTURE_DESC_sty
0000000000413810 t _ZN6cudart34__unimpl_cuTexRefSetMipmappedArrayEP11CUtexref_stP19CUmipmappedArray_stj
000000000040d6d0 T _ZN6cudart35cudaApiDeviceGetStreamPriorityRangeEPiS0_
000000000040b730 T _ZN6cudart35cudaApiEGLStreamProducerReturnFrameEPP24CUeglStreamConnection_stP15cudaEglFrame_stPP11CUstream_st
000000000040a5f0 T _ZN6cudart35cudaApiGetSurfaceObjectResourceDescEP16cudaResourceDescy
000000000040a9d0 T _ZN6cudart35cudaApiGetTextureObjectResourceDescEP16cudaResourceDescy
0000000000412d90 T _ZN6cudart35cudaApiGraphExecKernelNodeSetParamsEP14CUgraphExec_stP14CUgraphNode_stPK20cudaKernelNodeParams
0000000000411e00 T _ZN6cudart35cudaApiLaunchCooperativeKernel_ptszEPKv4dim3S2_PPvmP11CUstream_st
00000000004563d0 T _ZN6cudart35cuosInitializeCriticalSectionSharedEP15pthread_mutex_t
00000000004510c0 T _ZN6cudart35cuosServerSocketGetDataArrivedEventEPNS_16CUOSserverSocketEPNS_9cuosEventE
0000000000674c78 B _ZN6cudart35__fun_cuEGLStreamConsumerDisconnectE
0000000000674c98 B _ZN6cudart35__fun_cuEGLStreamProducerDisconnectE
0000000000674df8 B _ZN6cudart35__fun_cuGraphChildGraphNodeGetGraphE
0000000000674ce0 B _ZN6cudart35__fun_cuGraphicsUnmapResources_ptszE
0000000000674a50 B _ZN6cudart35__fun_cuWaitExternalSemaphoresAsyncE
00000000006753a8 b _ZN6cudart35__funtmp_cuDestroyExternalSemaphoreE
0000000000674f98 b _ZN6cudart35__funtmp_cuDevicePrimaryCtxGetStateE
0000000000674f90 b _ZN6cudart35__funtmp_cuDevicePrimaryCtxSetFlagsE
00000000006755b8 b _ZN6cudart35__funtmp_cuEGLStreamConsumerConnectE
00000000006755d8 b _ZN6cudart35__funtmp_cuEGLStreamProducerConnectE
0000000000675588 b _ZN6cudart35__funtmp_cuGLUnmapBufferObjectAsyncE
0000000000675590 b _ZN6cudart35__funtmp_cuGLUnregisterBufferObjectE
00000000006755b0 b _ZN6cudart35__funtmp_cuGraphicsEGLRegisterImageE
00000000006755a8 b _ZN6cudart35__funtmp_cuGraphicsGLRegisterBufferE
00000000006756e0 b _ZN6cudart35__funtmp_cuGraphKernelNodeGetParamsE
00000000006756e8 b _ZN6cudart35__funtmp_cuGraphKernelNodeSetParamsE
00000000006756f8 b _ZN6cudart35__funtmp_cuGraphMemcpyNodeGetParamsE
0000000000675700 b _ZN6cudart35__funtmp_cuGraphMemcpyNodeSetParamsE
0000000000675710 b _ZN6cudart35__funtmp_cuGraphMemsetNodeGetParamsE
0000000000675718 b _ZN6cudart35__funtmp_cuGraphMemsetNodeSetParamsE
0000000000675780 b _ZN6cudart35__funtmp_cuGraphNodeGetDependenciesE
0000000000675478 b _ZN6cudart35__funtmp_cuStreamCreateWithPriorityE
0000000000675330 b _ZN6cudart35__funtmp_cuTexObjectGetResourceDescE
00000000006752e8 b _ZN6cudart35__funtmp_cuTexRefSetMipmapLevelBiasE
0000000000413a00 t _ZN6cudart35__unimpl_cuDestroyExternalSemaphoreEP17CUextSemaphore_st
00000000004131e0 t _ZN6cudart35__unimpl_cuDevicePrimaryCtxGetStateEiPjPi
00000000004131d0 t _ZN6cudart35__unimpl_cuDevicePrimaryCtxSetFlagsEij
0000000000413e20 t _ZN6cudart35__unimpl_cuEGLStreamConsumerConnectEPP24CUeglStreamConnection_stPv
0000000000413e60 t _ZN6cudart35__unimpl_cuEGLStreamProducerConnectEPP24CUeglStreamConnection_stPvii
0000000000413dc0 t _ZN6cudart35__unimpl_cuGLUnmapBufferObjectAsyncEjP11CUstream_st
0000000000413dd0 t _ZN6cudart35__unimpl_cuGLUnregisterBufferObjectEj
0000000000413e10 t _ZN6cudart35__unimpl_cuGraphicsEGLRegisterImageEPP21CUgraphicsResource_stPvj
0000000000413e00 t _ZN6cudart35__unimpl_cuGraphicsGLRegisterBufferEPP21CUgraphicsResource_stjj
0000000000414070 t _ZN6cudart35__unimpl_cuGraphKernelNodeGetParamsEP14CUgraphNode_stP26CUDA_KERNEL_NODE_PARAMS_st
0000000000414080 t _ZN6cudart35__unimpl_cuGraphKernelNodeSetParamsEP14CUgraphNode_stPK26CUDA_KERNEL_NODE_PARAMS_st
00000000004140a0 t _ZN6cudart35__unimpl_cuGraphMemcpyNodeGetParamsEP14CUgraphNode_stP16CUDA_MEMCPY3D_st
00000000004140b0 t _ZN6cudart35__unimpl_cuGraphMemcpyNodeSetParamsEP14CUgraphNode_stPK16CUDA_MEMCPY3D_st
00000000004140d0 t _ZN6cudart35__unimpl_cuGraphMemsetNodeGetParamsEP14CUgraphNode_stP26CUDA_MEMSET_NODE_PARAMS_st
00000000004140e0 t _ZN6cudart35__unimpl_cuGraphMemsetNodeSetParamsEP14CUgraphNode_stPK26CUDA_MEMSET_NODE_PARAMS_st
00000000004141b0 t _ZN6cudart35__unimpl_cuGraphNodeGetDependenciesEP14CUgraphNode_stPS1_Pm
0000000000413ba0 t _ZN6cudart35__unimpl_cuStreamCreateWithPriorityEPP11CUstream_stji
0000000000413910 t _ZN6cudart35__unimpl_cuTexObjectGetResourceDescEP21CUDA_RESOURCE_DESC_sty
0000000000413880 t _ZN6cudart35__unimpl_cuTexRefSetMipmapLevelBiasEP11CUtexref_stf
000000000040c260 T _ZN6cudart36cudaApiEGLStreamConsumerAcquireFrameEPP24CUeglStreamConnection_stPP20cudaGraphicsResourcePP11CUstream_stj
000000000040c1d0 T _ZN6cudart36cudaApiEGLStreamConsumerReleaseFrameEPP24CUeglStreamConnection_stP20cudaGraphicsResourcePP11CUstream_st
000000000040b850 T _ZN6cudart36cudaApiEGLStreamProducerPresentFrameEPP24CUeglStreamConnection_st15cudaEglFrame_stPP11CUstream_st
000000000040cf70 T _ZN6cudart36cudaApiExternalMemoryGetMappedBufferEPPvP19CUexternalMemory_stPK28cudaExternalMemoryBufferDesc
0000000000411bc0 t _ZN6cudart36cudaApiLaunchCooperativeKernelCommonEPKv4dim3S2_PPvmP11CUstream_stb
0000000000409680 T _ZN6cudart36cudaApiSignalExternalSemaphoresAsyncEPKP22CUexternalSemaphore_stPK33cudaExternalSemaphoreSignalParamsjP11CUstream_st
0000000000674ca8 B _ZN6cudart36__fun_cuEGLStreamProducerReturnFrameE
0000000000674ed8 B _ZN6cudart36__fun_cuGraphExecKernelNodeSetParamsE
0000000000674a80 B _ZN6cudart36__fun_cuLaunchCooperativeKernel_ptszE
00000000006749f8 B _ZN6cudart36__fun_cuTexObjectGetResourceViewDescE
0000000000675008 b _ZN6cudart36__funtmp_cuCtxGetStreamPriorityRangeE
0000000000675570 b _ZN6cudart36__funtmp_cuGLMapBufferObjectAsync_v2E
0000000000675568 b _ZN6cudart36__funtmp_cuGLMapBufferObject_v2_ptdsE
0000000000675598 b _ZN6cudart36__funtmp_cuGLSetBufferObjectMapFlagsE
0000000000675618 b _ZN6cudart36__funtmp_cuGraphicsMapResources_ptszE
00000000006751a0 b _ZN6cudart36__funtmp_cuMemcpy2DUnaligned_v2_ptdsE
00000000006754f8 b _ZN6cudart36__funtmp_cuStreamAttachMemAsync_ptszE
0000000000675818 b _ZN6cudart36__funtmp_cuStreamGetCaptureInfo_ptszE
0000000000675358 b _ZN6cudart36__funtmp_cuSurfObjectGetResourceDescE
00000000006752e0 b _ZN6cudart36__funtmp_cuTexRefSetMipmapFilterModeE
00000000006752f0 b _ZN6cudart36__funtmp_cuTexRefSetMipmapLevelClampE
00000000004132c0 t _ZN6cudart36__unimpl_cuCtxGetStreamPriorityRangeEPiS0_
0000000000413d90 t _ZN6cudart36__unimpl_cuGLMapBufferObjectAsync_v2EPyPmjP11CUstream_st
0000000000413d80 t _ZN6cudart36__unimpl_cuGLMapBufferObject_v2_ptdsEPyPmj
0000000000413de0 t _ZN6cudart36__unimpl_cuGLSetBufferObjectMapFlagsEjj
0000000000413ee0 t _ZN6cudart36__unimpl_cuGraphicsMapResources_ptszEjPP21CUgraphicsResource_stP11CUstream_st
00000000004135f0 t _ZN6cudart36__unimpl_cuMemcpy2DUnaligned_v2_ptdsEPK16CUDA_MEMCPY2D_st
0000000000413ca0 t _ZN6cudart36__unimpl_cuStreamAttachMemAsync_ptszEP11CUstream_stymj
00000000004142e0 t _ZN6cudart36__unimpl_cuStreamGetCaptureInfo_ptszEP11CUstream_stP26CUstreamCaptureStatus_enumPy
0000000000413960 t _ZN6cudart36__unimpl_cuSurfObjectGetResourceDescEP21CUDA_RESOURCE_DESC_sty
0000000000413870 t _ZN6cudart36__unimpl_cuTexRefSetMipmapFilterModeEP11CUtexref_st18CUfilter_mode_enum
0000000000413890 t _ZN6cudart36__unimpl_cuTexRefSetMipmapLevelClampEP11CUtexref_stff
0000000000452b00 T _ZN6cudart37cuosInterlockedCompareExchangePointerEPVPvS0_S0_
0000000000674c80 B _ZN6cudart37__fun_cuEGLStreamConsumerAcquireFrameE
0000000000674c88 B _ZN6cudart37__fun_cuEGLStreamConsumerReleaseFrameE
0000000000674ca0 B _ZN6cudart37__fun_cuEGLStreamProducerPresentFrameE
0000000000674a20 B _ZN6cudart37__fun_cuExternalMemoryGetMappedBufferE
0000000000674a40 B _ZN6cudart37__fun_cuSignalExternalSemaphoresAsyncE
0000000000675608 b _ZN6cudart37__funtmp_cuGraphicsUnregisterResourceE
0000000000675788 b _ZN6cudart37__funtmp_cuGraphNodeGetDependentNodesE
00000000006750c8 b _ZN6cudart37__funtmp_cuMemHostGetDevicePointer_v2E
00000000006757e8 b _ZN6cudart37__funtmp_cuStreamBeginCapture_v2_ptszE
0000000000413ec0 t _ZN6cudart37__unimpl_cuGraphicsUnregisterResourceEP21CUgraphicsResource_st
00000000004141c0 t _ZN6cudart37__unimpl_cuGraphNodeGetDependentNodesEP14CUgraphNode_stPS1_Pm
0000000000413440 t _ZN6cudart37__unimpl_cuMemHostGetDevicePointer_v2EPyPvj
0000000000414280 t _ZN6cudart37__unimpl_cuStreamBeginCapture_v2_ptszEP11CUstream_st24CUstreamCaptureMode_enum
0000000000409940 T _ZN6cudart38cudaApiThreadExchangeStreamCaptureModeEP21cudaStreamCaptureMode
0000000000674c30 B _ZN6cudart38__fun_cuGLMapBufferObjectAsync_v2_ptszE
0000000000674ce8 B _ZN6cudart38__fun_cuGraphicsResourceSetMapFlags_v2E
00000000006755c0 b _ZN6cudart38__funtmp_cuEGLStreamConsumerDisconnectE
00000000006755e0 b _ZN6cudart38__funtmp_cuEGLStreamProducerDisconnectE
0000000000675740 b _ZN6cudart38__funtmp_cuGraphChildGraphNodeGetGraphE
0000000000675628 b _ZN6cudart38__funtmp_cuGraphicsUnmapResources_ptszE
0000000000675398 b _ZN6cudart38__funtmp_cuWaitExternalSemaphoresAsyncE
0000000000413e30 t _ZN6cudart38__unimpl_cuEGLStreamConsumerDisconnectEPP24CUeglStreamConnection_st
0000000000413e70 t _ZN6cudart38__unimpl_cuEGLStreamProducerDisconnectEPP24CUeglStreamConnection_st
0000000000414130 t _ZN6cudart38__unimpl_cuGraphChildGraphNodeGetGraphEP14CUgraphNode_stPP10CUgraph_st
0000000000413f00 t _ZN6cudart38__unimpl_cuGraphicsUnmapResources_ptszEjPP21CUgraphicsResource_stP11CUstream_st
00000000004139e0 t _ZN6cudart38__unimpl_cuWaitExternalSemaphoresAsyncEPKP17CUextSemaphore_stPK38CUDA_EXTERNAL_SEMAPHORE_WAIT_PARAMS_stjP11CUstream_st
000000000040a7f0 T _ZN6cudart39cudaApiGetTextureObjectResourceViewDescEP20cudaResourceViewDescy
000000000040ada0 T _ZN6cudart39cudaApiGraphicsResourceGetMappedPointerEPPvPmP20cudaGraphicsResource
00000000004093d0 T _ZN6cudart39cudaApiWaitExternalSemaphoresAsync_ptszEPKP22CUexternalSemaphore_stPK31cudaExternalSemaphoreWaitParamsjP11CUstream_st
0000000000674ee0 B _ZN6cudart39__fun_cuThreadExchangeStreamCaptureModeE
00000000006755f0 b _ZN6cudart39__funtmp_cuEGLStreamProducerReturnFrameE
0000000000675820 b _ZN6cudart39__funtmp_cuGraphExecKernelNodeSetParamsE
00000000006753c8 b _ZN6cudart39__funtmp_cuLaunchCooperativeKernel_ptszE
0000000000675340 b _ZN6cudart39__funtmp_cuTexObjectGetResourceViewDescE
0000000000413e90 t _ZN6cudart39__unimpl_cuEGLStreamProducerReturnFrameEPP24CUeglStreamConnection_stP13CUeglFrame_stPP11CUstream_st
00000000004142f0 t _ZN6cudart39__unimpl_cuGraphExecKernelNodeSetParamsEP14CUgraphExec_stP14CUgraphNode_stP26CUDA_KERNEL_NODE_PARAMS_st
0000000000413a40 t _ZN6cudart39__unimpl_cuLaunchCooperativeKernel_ptszEP9CUfunc_stjjjjjjjP11CUstream_stPPv
0000000000413930 t _ZN6cudart39__unimpl_cuTexObjectGetResourceViewDescEP26CUDA_RESOURCE_VIEW_DESC_sty
00000000004580c0 W _ZN6cudart3setINS_3mapIP9CUfunc_stPNS_17cudaEntryFunctionEE5entryEE8get_sizeEjPm
0000000000458080 W _ZN6cudart3setINS_3mapIPK16surfaceReferencePNS_11cudaSurfaceEE5entryEE8get_sizeEjPm
0000000000458060 W _ZN6cudart3setINS_3mapIPK16textureReferencePNS_11cudaTextureEE5entryEE8get_sizeEjPm
0000000000458040 W _ZN6cudart3setINS_3mapIPKvPNS_12cudaVariableEE5entryEE8get_sizeEjPm
0000000000458020 W _ZN6cudart3setINS_3mapIPKvPNS_17cudaEntryFunctionEE5entryEE8get_sizeEjPm
0000000000458000 W _ZN6cudart3setINS_3mapIPNS_12globalModuleEPNS_6moduleEE5entryEE8get_sizeEjPm
0000000000457fc0 W _ZN6cudart3setIPK16surfaceReferenceE8get_sizeEjPm
0000000000457fa0 W _ZN6cudart3setIPK16textureReferenceE8get_sizeEjPm
0000000000457f80 W _ZN6cudart3setIPKvE8get_sizeEjPm
00000000004580a0 W _ZN6cudart3setIPNS_12contextStateEE8get_sizeEjPm
0000000000457f60 W _ZN6cudart3setIPNS_12globalModuleEE8get_sizeEjPm
0000000000457fe0 W _ZN6cudart3setIPNS_6moduleEE8get_sizeEjPm
000000000040c360 T _ZN6cudart40cudaApiEGLStreamConsumerConnectWithFlagsEPP24CUeglStreamConnection_stPvj
000000000040b5f0 T _ZN6cudart40cudaApiGraphicsResourceGetMappedEglFrameEP15cudaEglFrame_stP20cudaGraphicsResourcejj
000000000040ace0 T _ZN6cudart40cudaApiGraphicsSubResourceGetMappedArrayEPP9cudaArrayP20cudaGraphicsResourcejj
000000000040b090 T _ZN6cudart40cudaApiGraphicsVDPAURegisterVideoSurfaceEPP20cudaGraphicsResourcejj
0000000000409150 t _ZN6cudart40cudaApiWaitExternalSemaphoresAsyncCommonEPKP22CUexternalSemaphore_stPK31cudaExternalSemaphoreWaitParamsjP11CUstream_stb
0000000000674a58 B _ZN6cudart40__fun_cuWaitExternalSemaphoresAsync_ptszE
00000000006755c8 b _ZN6cudart40__funtmp_cuEGLStreamConsumerAcquireFrameE
00000000006755d0 b _ZN6cudart40__funtmp_cuEGLStreamConsumerReleaseFrameE
00000000006755e8 b _ZN6cudart40__funtmp_cuEGLStreamProducerPresentFrameE
0000000000675368 b _ZN6cudart40__funtmp_cuExternalMemoryGetMappedBufferE
0000000000675388 b _ZN6cudart40__funtmp_cuSignalExternalSemaphoresAsyncE
0000000000413e40 t _ZN6cudart40__unimpl_cuEGLStreamConsumerAcquireFrameEPP24CUeglStreamConnection_stPP21CUgraphicsResource_stPP11CUstream_stj
0000000000413e50 t _ZN6cudart40__unimpl_cuEGLStreamConsumerReleaseFrameEPP24CUeglStreamConnection_stP21CUgraphicsResource_stPP11CUstream_st
0000000000413e80 t _ZN6cudart40__unimpl_cuEGLStreamProducerPresentFrameEPP24CUeglStreamConnection_st13CUeglFrame_stPP11CUstream_st
0000000000413980 t _ZN6cudart40__unimpl_cuExternalMemoryGetMappedBufferEPyP14CUextMemory_stPK35CUDA_EXTERNAL_MEMORY_BUFFER_DESC_st
00000000004139c0 t _ZN6cudart40__unimpl_cuSignalExternalSemaphoresAsyncEPKP17CUextSemaphore_stPK40CUDA_EXTERNAL_SEMAPHORE_SIGNAL_PARAMS_stjP11CUstream_st
000000000040b000 T _ZN6cudart41cudaApiGraphicsVDPAURegisterOutputSurfaceEPP20cudaGraphicsResourcejj
000000000040eab0 T _ZN6cudart41cudaApiLaunchCooperativeKernelMultiDeviceEP16cudaLaunchParamsjj
0000000000409670 T _ZN6cudart41cudaApiSignalExternalSemaphoresAsync_ptszEPKP22CUexternalSemaphore_stPK33cudaExternalSemaphoreSignalParamsjP11CUstream_st
0000000000674cb8 B _ZN6cudart41__fun_cuEGLStreamConsumerConnectWithFlagsE
0000000000674cb0 B _ZN6cudart41__fun_cuGraphicsResourceGetMappedEglFrameE
0000000000674cf0 B _ZN6cudart41__fun_cuGraphicsSubResourceGetMappedArrayE
0000000000674d30 B _ZN6cudart41__fun_cuGraphicsVDPAURegisterVideoSurfaceE
0000000000675578 b _ZN6cudart41__funtmp_cuGLMapBufferObjectAsync_v2_ptszE
0000000000675630 b _ZN6cudart41__funtmp_cuGraphicsResourceSetMapFlags_v2E
0000000000413da0 t _ZN6cudart41__unimpl_cuGLMapBufferObjectAsync_v2_ptszEPyPmjP11CUstream_st
0000000000413f10 t _ZN6cudart41__unimpl_cuGraphicsResourceSetMapFlags_v2EP21CUgraphicsResource_stj
00000000004093f0 t _ZN6cudart42cudaApiSignalExternalSemaphoresAsyncCommonEPKP22CUexternalSemaphore_stPK33cudaExternalSemaphoreSignalParamsjP11CUstream_stb
0000000000456c50 t _ZN6cudart42cuosVirtualReserveInRangeBug1778973WARInitEv
0000000000674d38 B _ZN6cudart42__fun_cuGraphicsVDPAURegisterOutputSurfaceE
0000000000674a88 B _ZN6cudart42__fun_cuLaunchCooperativeKernelMultiDeviceE
0000000000674a48 B _ZN6cudart42__fun_cuSignalExternalSemaphoresAsync_ptszE
0000000000675828 b _ZN6cudart42__funtmp_cuThreadExchangeStreamCaptureModeE
0000000000414300 t _ZN6cudart42__unimpl_cuThreadExchangeStreamCaptureModeEP24CUstreamCaptureMode_enum
0000000000456350 T _ZN6cudart43cuosInitializeCriticalSectionWithSharedFlagEP15pthread_mutex_ti
0000000000675960 b _ZN6cudart43cuosVirtualReserveInRangeBug1778973WARMutexE
0000000000674d00 B _ZN6cudart43__fun_cuGraphicsResourceGetMappedPointer_v2E
00000000006753a0 b _ZN6cudart43__funtmp_cuWaitExternalSemaphoresAsync_ptszE
00000000004139f0 t _ZN6cudart43__unimpl_cuWaitExternalSemaphoresAsync_ptszEPKP17CUextSemaphore_stPK38CUDA_EXTERNAL_SEMAPHORE_WAIT_PARAMS_stjP11CUstream_st
000000000040ce60 T _ZN6cudart44cudaApiExternalMemoryGetMappedMipmappedArrayEPP18cudaMipmappedArrayP19CUexternalMemory_stPK36cudaExternalMemoryMipmappedArrayDesc
0000000000675600 b _ZN6cudart44__funtmp_cuEGLStreamConsumerConnectWithFlagsE
00000000006755f8 b _ZN6cudart44__funtmp_cuGraphicsResourceGetMappedEglFrameE
0000000000675638 b _ZN6cudart44__funtmp_cuGraphicsSubResourceGetMappedArrayE
0000000000675678 b _ZN6cudart44__funtmp_cuGraphicsVDPAURegisterVideoSurfaceE
0000000000413eb0 t _ZN6cudart44__unimpl_cuEGLStreamConsumerConnectWithFlagsEPP24CUeglStreamConnection_stPvj
0000000000413ea0 t _ZN6cudart44__unimpl_cuGraphicsResourceGetMappedEglFrameEP13CUeglFrame_stP21CUgraphicsResource_stjj
0000000000413f20 t _ZN6cudart44__unimpl_cuGraphicsSubResourceGetMappedArrayEPP10CUarray_stP21CUgraphicsResource_stjj
0000000000413fa0 t _ZN6cudart44__unimpl_cuGraphicsVDPAURegisterVideoSurfaceEPP21CUgraphicsResource_stjj
0000000000674a28 B _ZN6cudart45__fun_cuExternalMemoryGetMappedMipmappedArrayE
0000000000675680 b _ZN6cudart45__funtmp_cuGraphicsVDPAURegisterOutputSurfaceE
00000000006753d0 b _ZN6cudart45__funtmp_cuLaunchCooperativeKernelMultiDeviceE
0000000000675390 b _ZN6cudart45__funtmp_cuSignalExternalSemaphoresAsync_ptszE
0000000000413fb0 t _ZN6cudart45__unimpl_cuGraphicsVDPAURegisterOutputSurfaceEPP21CUgraphicsResource_stjj
0000000000413a50 t _ZN6cudart45__unimpl_cuLaunchCooperativeKernelMultiDeviceEP21CUDA_LAUNCH_PARAMS_stjj
00000000004139d0 t _ZN6cudart45__unimpl_cuSignalExternalSemaphoresAsync_ptszEPKP17CUextSemaphore_stPK40CUDA_EXTERNAL_SEMAPHORE_SIGNAL_PARAMS_stjP11CUstream_st
000000000040ac40 T _ZN6cudart46cudaApiGraphicsResourceGetMappedMipmappedArrayEPP18cudaMipmappedArrayP20cudaGraphicsResource
0000000000675648 b _ZN6cudart46__funtmp_cuGraphicsResourceGetMappedPointer_v2E
0000000000413f40 t _ZN6cudart46__unimpl_cuGraphicsResourceGetMappedPointer_v2EPyPmP21CUgraphicsResource_st
0000000000674cf8 B _ZN6cudart47__fun_cuGraphicsResourceGetMappedMipmappedArrayE
0000000000411590 T _ZN6cudart48cudaApiOccupancyMaxActiveBlocksPerMultiprocessorEPiPKvim
0000000000675370 b _ZN6cudart48__funtmp_cuExternalMemoryGetMappedMipmappedArrayE
0000000000413990 t _ZN6cudart48__unimpl_cuExternalMemoryGetMappedMipmappedArrayEPP19CUmipmappedArray_stP14CUextMemory_stPK44CUDA_EXTERNAL_MEMORY_MIPMAPPED_ARRAY_DESC_st
0000000000675640 b _ZN6cudart50__funtmp_cuGraphicsResourceGetMappedMipmappedArrayE
0000000000413f30 t _ZN6cudart50__unimpl_cuGraphicsResourceGetMappedMipmappedArrayEPP19CUmipmappedArray_stP21CUgraphicsResource_st
0000000000675958 b _ZN6cudart53cuosVirtualReserveInRangeBug1778973WARInitOnceControlE
00000000004114b0 T _ZN6cudart57cudaApiOccupancyMaxActiveBlocksPerMultiprocessorWithFlagsEPiPKvimj
0000000000674d48 B _ZN6cudart58__fun_cuOccupancyMaxActiveBlocksPerMultiprocessorWithFlagsE
0000000000675690 b _ZN6cudart61__funtmp_cuOccupancyMaxActiveBlocksPerMultiprocessorWithFlagsE
0000000000413fd0 t _ZN6cudart61__unimpl_cuOccupancyMaxActiveBlocksPerMultiprocessorWithFlagsEPiP9CUfunc_stimj
0000000000455dc0 T _ZN6cudart6cuosRmEPKc
0000000000414e80 T _ZN6cudart6device19resetPrimaryContextEv
0000000000414dd0 T _ZN6cudart6device22updateDevicePropertiesEv
0000000000422ff0 T _ZN6cudart6module6unloadEb
000000000041c9e0 T _ZN6cudart6moduleC1EPNS_12contextStateEP8CUmod_st14cudaError_enum
000000000041d220 T _ZN6cudart6moduleC2EPNS_12contextStateEP8CUmod_st14cudaError_enum
00000000006758c0 b _ZN6cudart6_pipe2E
0000000000675940 b _ZN6cudart6_pipe2E
0000000000674ef0 b _ZN6cudart7globalsE
00000000006745c0 b _ZN6cudart7nothrowE
0000000000674ee8 b _ZN6cudart7nothrowE
0000000000675834 b _ZN6cudart7nothrowE
0000000000675838 b _ZN6cudart7nothrowE
000000000067583c b _ZN6cudart7nothrowE
0000000000675840 b _ZN6cudart7nothrowE
0000000000675844 b _ZN6cudart7nothrowE
0000000000675848 b _ZN6cudart7nothrowE
000000000067584c b _ZN6cudart7nothrowE
0000000000675850 b _ZN6cudart7nothrowE
0000000000675854 b _ZN6cudart7nothrowE
0000000000675858 b _ZN6cudart7nothrowE
000000000067585c b _ZN6cudart7nothrowE
0000000000675860 b _ZN6cudart7nothrowE
0000000000675864 b _ZN6cudart7nothrowE
0000000000675868 b _ZN6cudart7nothrowE
00000000006758b8 b _ZN6cudart8_accept4E
0000000000455600 T _ZN6cudart8cuosFreeEPv
0000000000453d40 T _ZN6cudart8cuosInitEv
00000000004561c0 T _ZN6cudart8cuosOnceEPiPFvvE
0000000000452020 t _ZN6cudart8validateEP11sockaddr_unPjPKvm
00000000004557f0 T _ZN6cudart9cuosCPUIDEPii
0000000000455420 T _ZN6cudart9cuosFgetcEP8_IO_FILEPc
0000000000455530 T _ZN6cudart9cuosFopenEPKcmPP8_IO_FILE
0000000000455480 T _ZN6cudart9cuosFreadEP8_IO_FILEPvmPm
00000000004553c0 T _ZN6cudart9cuosFseekEP8_IO_FILEyNS_12cuosSeekEnumE
0000000000455380 T _ZN6cudart9cuosFtellEP8_IO_FILEPy
0000000000455e00 T _ZN6cudart9cuosMkdirEPKc
0000000000455de0 T _ZN6cudart9cuosRmdirEPKc
00000000004563f0 T _ZN6cudart9cuosSleepEj
00000000004146f0 T _ZN6cudart9deviceMgr12chooseDeviceEPK14cudaDeviceProp
00000000004196a0 T _ZN6cudart9deviceMgr16enumerateDevicesEv
00000000004143a0 T _ZN6cudart9deviceMgr19getDeviceFromDriverEPPNS_6deviceEi
0000000000414510 T _ZN6cudart9deviceMgr23getDeviceFromPrimaryCtxEP8CUctx_st
00000000004144f0 T _ZN6cudart9deviceMgr9getDeviceEPPNS_6deviceEi
000000000041ce70 T _ZNK6cudart11cudaTexture12setupTextureEv
000000000041cb30 T _ZNK6cudart11cudaTexture25getTextureAlignmentOffsetEPm
                 U _ZNSt8ios_base4InitC1Ev@@GLIBCXX_3.4
                 U _ZNSt8ios_base4InitD1Ev@@GLIBCXX_3.4
00000000004047eb W _ZSt4fabsf
00000000004581b0 r _ZStL19piecewise_construct
0000000000674590 b _ZStL8__ioinit
000000000045a84f r _ZZ10cudaMallocE12__FUNCTION__
00000000004599d3 r _ZZ10cudaMemcpyE12__FUNCTION__
00000000004598aa r _ZZ10cudaMemsetE12__FUNCTION__
000000000045a805 r _ZZ12cudaFreeHostE12__FUNCTION__
000000000045a752 r _ZZ12cudaMalloc3DE12__FUNCTION__
0000000000459992 r _ZZ12cudaMemcpy2DE12__FUNCTION__
00000000004598d1 r _ZZ12cudaMemcpy3DE12__FUNCTION__
000000000045989d r _ZZ12cudaMemset2DE12__FUNCTION__
0000000000459890 r _ZZ12cudaMemset3DE12__FUNCTION__
000000000045a7f7 r _ZZ13cudaFreeArrayE12__FUNCTION__
000000000045af24 r _ZZ13cudaGetDeviceE12__FUNCTION__
000000000045a7d1 r _ZZ13cudaHostAllocE12__FUNCTION__
000000000045a379 r _ZZ13cudaMemAdviseE12__FUNCTION__
000000000045af32 r _ZZ13cudaSetDeviceE12__FUNCTION__
000000000045ac45 r _ZZ14cudaEventQueryE12__FUNCTION__
0000000000459bc9 r _ZZ14cudaGraphCloneE12__FUNCTION__
000000000045a840 r _ZZ14cudaMallocHostE12__FUNCTION__
000000000045a632 r _ZZ14cudaMemcpyPeerE12__FUNCTION__
000000000045a671 r _ZZ14cudaMemGetInfoE12__FUNCTION__
000000000045b0f6 r _ZZ14cudaThreadExitE12__FUNCTION__
000000000045a0c0 r _ZZ15cudaBindTextureE12__FUNCTION__
000000000045b310 r _ZZ15cudaDeviceResetE12__FUNCTION__
000000000045aca0 r _ZZ15cudaEventCreateE12__FUNCTION__
00000000004596b0 r _ZZ15cudaEventRecordE12__FUNCTION__
0000000000459dc0 r _ZZ15cudaGraphCreateE12__FUNCTION__
0000000000459540 r _ZZ15cudaGraphLaunchE12__FUNCTION__
000000000045a820 r _ZZ15cudaMallocArrayE12__FUNCTION__
000000000045a830 r _ZZ15cudaMallocPitchE12__FUNCTION__
0000000000459880 r _ZZ15cudaMemcpyAsyncE12__FUNCTION__
000000000045a650 r _ZZ15cudaMemcpy_ptdsE12__FUNCTION__
0000000000459750 r _ZZ15cudaMemsetAsyncE12__FUNCTION__
000000000045a490 r _ZZ15cudaMemset_ptdsE12__FUNCTION__
0000000000459700 r _ZZ15cudaStreamQueryE12__FUNCTION__
000000000045a660 r _ZZ16cudaArrayGetInfoE12__FUNCTION__
000000000045af40 r _ZZ16cudaChooseDeviceE12__FUNCTION__
000000000045ac10 r _ZZ16cudaEventDestroyE12__FUNCTION__
000000000045b000 r _ZZ16cudaGetErrorNameE12__FUNCTION__
000000000045b040 r _ZZ16cudaGetLastErrorE12__FUNCTION__
000000000045b4c0 r _ZZ16cudaGLGetDevicesE12__FUNCTION__
00000000004599e0 r _ZZ16cudaGraphDestroyE12__FUNCTION__
000000000045a760 r _ZZ16cudaHostGetFlagsE12__FUNCTION__
000000000045a7c0 r _ZZ16cudaHostRegisterE12__FUNCTION__
0000000000458db0 r _ZZ16__cudaInitModuleE12__FUNCTION__
0000000000459610 r _ZZ16cudaLaunchKernelE12__FUNCTION__
00000000004598c0 r _ZZ16cudaMemcpy3DPeerE12__FUNCTION__
000000000045b320 r _ZZ16cudaProfilerStopE12__FUNCTION__
000000000045aeb0 r _ZZ16cudaStreamCreateE12__FUNCTION__
000000000045a0a0 r _ZZ17cudaBindTexture2DE12__FUNCTION__
000000000045a3b0 r _ZZ17cudaGetSymbolSizeE12__FUNCTION__
000000000045b460 r _ZZ17cudaGLSetGLDeviceE12__FUNCTION__
0000000000459b30 r _ZZ17cudaGraphGetEdgesE12__FUNCTION__
0000000000459b70 r _ZZ17cudaGraphGetNodesE12__FUNCTION__
000000000045a740 r _ZZ17cudaMalloc3DArrayE12__FUNCTION__
000000000045a860 r _ZZ17cudaMallocManagedE12__FUNCTION__
0000000000459820 r _ZZ17cudaMemcpy2DAsyncE12__FUNCTION__
000000000045a620 r _ZZ17cudaMemcpy2D_ptdsE12__FUNCTION__
0000000000459780 r _ZZ17cudaMemcpy3DAsyncE12__FUNCTION__
000000000045a6e0 r _ZZ17cudaMemcpy3D_ptdsE12__FUNCTION__
0000000000459980 r _ZZ17cudaMemcpyToArrayE12__FUNCTION__
0000000000459730 r _ZZ17cudaMemset2DAsyncE12__FUNCTION__
000000000045a470 r _ZZ17cudaMemset2D_ptdsE12__FUNCTION__
0000000000459710 r _ZZ17cudaMemset3DAsyncE12__FUNCTION__
000000000045a450 r _ZZ17cudaMemset3D_ptdsE12__FUNCTION__
000000000045b340 r _ZZ17cudaProfilerStartE12__FUNCTION__
000000000045ae10 r _ZZ17cudaStreamDestroyE12__FUNCTION__
000000000045a030 r _ZZ17cudaUnbindTextureE12__FUNCTION__
000000000045b2b0 r _ZZ18cudaDeviceGetLimitE12__FUNCTION__
000000000045b2d0 r _ZZ18cudaDeviceSetLimitE12__FUNCTION__
0000000000459f90 r _ZZ18cudaGetChannelDescE12__FUNCTION__
000000000045afc0 r _ZZ18cudaGetDeviceCountE12__FUNCTION__
000000000045aed0 r _ZZ18cudaGetDeviceFlagsE12__FUNCTION__
000000000045afe0 r _ZZ18cudaGetErrorStringE12__FUNCTION__
000000000045a7a0 r _ZZ18cudaHostUnregisterE12__FUNCTION__
00000000004595d0 r _ZZ18cudaLaunchHostFuncE12__FUNCTION__
00000000004599c0 r _ZZ18cudaMemcpyToSymbolE12__FUNCTION__
000000000045aef0 r _ZZ18cudaSetDeviceFlagsE12__FUNCTION__
00000000004596e0 r _ZZ18cudaStreamGetFlagsE12__FUNCTION__
000000000045b0a0 r _ZZ18cudaThreadGetLimitE12__FUNCTION__
000000000045b0c0 r _ZZ18cudaThreadSetLimitE12__FUNCTION__
000000000045b7b0 r _ZZ18cudaVDPAUGetDeviceE12__FUNCTION__
000000000045b150 r _ZZ19cudaIpcGetMemHandleE12__FUNCTION__
0000000000459960 r _ZZ19cudaMemcpy2DToArrayE12__FUNCTION__
0000000000459940 r _ZZ19cudaMemcpyFromArrayE12__FUNCTION__
000000000045a540 r _ZZ19cudaMemcpyPeerAsyncE12__FUNCTION__
000000000045b020 r _ZZ19cudaPeekAtLastErrorE12__FUNCTION__
000000000045af10 r _ZZ19cudaSetValidDevicesE12__FUNCTION__
0000000000459690 r _ZZ19cudaStreamWaitEventE12__FUNCTION__
0000000000459df0 r _ZZ20cudaDriverGetVersionE12__FUNCTION__
000000000045abf0 r _ZZ20cudaEventElapsedTimeE12__FUNCTION__
000000000045ac60 r _ZZ20cudaEventRecord_ptszE12__FUNCTION__
000000000045ac30 r _ZZ20cudaEventSynchronizeE12__FUNCTION__
000000000045a950 r _ZZ20cudaFuncSetAttributeE12__FUNCTION__
000000000045a3d0 r _ZZ20cudaGetSymbolAddressE12__FUNCTION__
0000000000459c80 r _ZZ20cudaGraphAddHostNodeE12__FUNCTION__
0000000000459a90 r _ZZ20cudaGraphDestroyNodeE12__FUNCTION__
0000000000459a00 r _ZZ20cudaGraphExecDestroyE12__FUNCTION__
0000000000459a70 r _ZZ20cudaGraphInstantiateE12__FUNCTION__
0000000000459a20 r _ZZ20cudaGraphLaunch_ptszE12__FUNCTION__
0000000000459b90 r _ZZ20cudaGraphNodeGetTypeE12__FUNCTION__
000000000045b130 r _ZZ20cudaIpcOpenMemHandleE12__FUNCTION__
000000000045a560 r _ZZ20cudaMemcpyAsync_ptszE12__FUNCTION__
00000000004599a0 r _ZZ20cudaMemcpyFromSymbolE12__FUNCTION__
00000000004595b0 r _ZZ20cudaMemPrefetchAsyncE12__FUNCTION__
000000000045a430 r _ZZ20cudaMemsetAsync_ptszE12__FUNCTION__
000000000045a910 r _ZZ20cudaSetDoubleForHostE12__FUNCTION__
0000000000459500 r _ZZ20cudaStreamEndCaptureE12__FUNCTION__
000000000045ad90 r _ZZ20cudaStreamQuery_ptszE12__FUNCTION__
0000000000459f70 r _ZZ21cudaCreateChannelDescE12__FUNCTION__
000000000045b1b0 r _ZZ21cudaDeviceGetPCIBusIdE12__FUNCTION__
000000000045b2f0 r _ZZ21cudaDeviceSynchronizeE12__FUNCTION__
000000000045a970 r _ZZ21cudaFuncGetAttributesE12__FUNCTION__
000000000045b420 r _ZZ21cudaGLMapBufferObjectE12__FUNCTION__
0000000000459be0 r _ZZ21cudaGraphAddEmptyNodeE12__FUNCTION__
0000000000459b50 r _ZZ21cudaGraphGetRootNodesE12__FUNCTION__
000000000045b110 r _ZZ21cudaIpcCloseMemHandleE12__FUNCTION__
000000000045b190 r _ZZ21cudaIpcGetEventHandleE12__FUNCTION__
000000000045aa50 r _ZZ21cudaLaunchKernel_ptszE12__FUNCTION__
0000000000459920 r _ZZ21cudaMemcpy2DFromArrayE12__FUNCTION__
0000000000459760 r _ZZ21cudaMemcpy3DPeerAsyncE12__FUNCTION__
000000000045a6c0 r _ZZ21cudaMemcpy3DPeer_ptdsE12__FUNCTION__
0000000000459dd0 r _ZZ21cudaRuntimeGetVersionE12__FUNCTION__
0000000000459670 r _ZZ21cudaStreamAddCallbackE12__FUNCTION__
00000000004596c0 r _ZZ21cudaStreamGetPriorityE12__FUNCTION__
00000000004594e0 r _ZZ21cudaStreamIsCapturingE12__FUNCTION__
0000000000459630 r _ZZ21cudaStreamSynchronizeE12__FUNCTION__
000000000045b0e0 r _ZZ21cudaThreadSynchronizeE12__FUNCTION__
0000000000459fd0 r _ZZ22cudaBindSurfaceToArrayE12__FUNCTION__
000000000045a080 r _ZZ22cudaBindTextureToArrayE12__FUNCTION__
000000000045af80 r _ZZ22cudaDeviceGetAttributeE12__FUNCTION__
000000000045a7e0 r _ZZ22cudaFreeMipmappedArrayE12__FUNCTION__
000000000045a9b0 r _ZZ22cudaFuncSetCacheConfigE12__FUNCTION__
0000000000459da0 r _ZZ22cudaGraphAddKernelNodeE12__FUNCTION__
0000000000459d40 r _ZZ22cudaGraphAddMemcpyNodeE12__FUNCTION__
0000000000459ce0 r _ZZ22cudaGraphAddMemsetNodeE12__FUNCTION__
000000000045b170 r _ZZ22cudaIpcOpenEventHandleE12__FUNCTION__
000000000045a520 r _ZZ22cudaMemcpy2DAsync_ptszE12__FUNCTION__
000000000045a6a0 r _ZZ22cudaMemcpy3DAsync_ptszE12__FUNCTION__
0000000000459900 r _ZZ22cudaMemcpyArrayToArrayE12__FUNCTION__
0000000000459800 r _ZZ22cudaMemcpyToArrayAsyncE12__FUNCTION__
000000000045a320 r _ZZ22cudaMemcpyToArray_ptdsE12__FUNCTION__
000000000045a410 r _ZZ22cudaMemset2DAsync_ptszE12__FUNCTION__
000000000045a3f0 r _ZZ22cudaMemset3DAsync_ptszE12__FUNCTION__
000000000045b360 r _ZZ22cudaProfilerInitializeE12__FUNCTION__
000000000045a930 r _ZZ22cudaSetDoubleForDeviceE12__FUNCTION__
0000000000459520 r _ZZ22cudaStreamBeginCaptureE12__FUNCTION__
0000000000459e70 r _ZZ23cudaCreateSurfaceObjectE12__FUNCTION__
0000000000459f50 r _ZZ23cudaCreateTextureObjectE12__FUNCTION__
000000000045a260 r _ZZ23cudaDeviceCanAccessPeerE12__FUNCTION__
000000000045b1d0 r _ZZ23cudaDeviceGetByPCIBusIdE12__FUNCTION__
000000000045afa0 r _ZZ23cudaGetDevicePropertiesE12__FUNCTION__
0000000000459fb0 r _ZZ23cudaGetSurfaceReferenceE12__FUNCTION__
0000000000459ff0 r _ZZ23cudaGetTextureReferenceE12__FUNCTION__
000000000045b400 r _ZZ23cudaGLUnmapBufferObjectE12__FUNCTION__
000000000045a8f0 r _ZZ23cudaLaunchHostFunc_ptszE12__FUNCTION__
0000000000459860 r _ZZ23cudaMemcpyToSymbolAsyncE12__FUNCTION__
000000000045a5a0 r _ZZ23cudaMemcpyToSymbol_ptdsE12__FUNCTION__
000000000045ae30 r _ZZ23cudaStreamGetFlags_ptszE12__FUNCTION__
000000000045b790 r _ZZ23cudaVDPAUSetVDPAUDeviceE12__FUNCTION__
0000000000459e50 r _ZZ24cudaDestroySurfaceObjectE12__FUNCTION__
0000000000459f30 r _ZZ24cudaDestroyTextureObjectE12__FUNCTION__
000000000045b290 r _ZZ24cudaDeviceGetCacheConfigE12__FUNCTION__
000000000045b230 r _ZZ24cudaDeviceSetCacheConfigE12__FUNCTION__
000000000045ac80 r _ZZ24cudaEventCreateWithFlagsE12__FUNCTION__
0000000000459ad0 r _ZZ24cudaGraphAddDependenciesE12__FUNCTION__
000000000045a1b0 r _ZZ24cudaGraphicsMapResourcesE12__FUNCTION__
0000000000459bb0 r _ZZ24cudaGraphNodeFindInCloneE12__FUNCTION__
000000000045a780 r _ZZ24cudaHostGetDevicePointerE12__FUNCTION__
000000000045abd0 r _ZZ24cudaImportExternalMemoryE12__FUNCTION__
000000000045a720 r _ZZ24cudaMallocMipmappedArrayE12__FUNCTION__
00000000004598e0 r _ZZ24cudaMemcpy2DArrayToArrayE12__FUNCTION__
00000000004597e0 r _ZZ24cudaMemcpy2DToArrayAsyncE12__FUNCTION__
000000000045a600 r _ZZ24cudaMemcpy2DToArray_ptdsE12__FUNCTION__
00000000004597c0 r _ZZ24cudaMemcpyFromArrayAsyncE12__FUNCTION__
000000000045a300 r _ZZ24cudaMemcpyFromArray_ptdsE12__FUNCTION__
000000000045a360 r _ZZ24cudaMemRangeGetAttributeE12__FUNCTION__
000000000045a280 r _ZZ24cudaPointerGetAttributesE12__FUNCTION__
0000000000459650 r _ZZ24cudaStreamAttachMemAsyncE12__FUNCTION__
00000000004594c0 r _ZZ24cudaStreamGetCaptureInfoE12__FUNCTION__
000000000045adf0 r _ZZ24cudaStreamWaitEvent_ptszE12__FUNCTION__
000000000045b080 r _ZZ24cudaThreadGetCacheConfigE12__FUNCTION__
000000000045b060 r _ZZ24cudaThreadSetCacheConfigE12__FUNCTION__
000000000045ab30 r _ZZ25cudaDestroyExternalMemoryE12__FUNCTION__
000000000045af60 r _ZZ25cudaDeviceGetP2PAttributeE12__FUNCTION__
0000000000459840 r _ZZ25cudaMemcpyFromSymbolAsyncE12__FUNCTION__
000000000045a580 r _ZZ25cudaMemcpyFromSymbol_ptdsE12__FUNCTION__
000000000045a390 r _ZZ25cudaMemPrefetchAsync_ptszE12__FUNCTION__
000000000045a340 r _ZZ25cudaMemRangeGetAttributesE12__FUNCTION__
000000000045ae90 r _ZZ25cudaStreamCreateWithFlagsE12__FUNCTION__
000000000045acf0 r _ZZ25cudaStreamEndCapture_ptszE12__FUNCTION__
000000000045a240 r _ZZ26cudaDeviceEnablePeerAccessE12__FUNCTION__
000000000045b4e0 r _ZZ26cudaEventCreateFromEGLSyncE12__FUNCTION__
000000000045a990 r _ZZ26cudaFuncSetSharedMemConfigE12__FUNCTION__
000000000045a700 r _ZZ26cudaGetMipmappedArrayLevelE12__FUNCTION__
000000000045b3a0 r _ZZ26cudaGLMapBufferObjectAsyncE12__FUNCTION__
000000000045b440 r _ZZ26cudaGLRegisterBufferObjectE12__FUNCTION__
0000000000459c20 r _ZZ26cudaGraphAddChildGraphNodeE12__FUNCTION__
0000000000459c60 r _ZZ26cudaGraphHostNodeGetParamsE12__FUNCTION__
0000000000459c40 r _ZZ26cudaGraphHostNodeSetParamsE12__FUNCTION__
000000000045a190 r _ZZ26cudaGraphicsUnmapResourcesE12__FUNCTION__
00000000004597a0 r _ZZ26cudaMemcpy2DFromArrayAsyncE12__FUNCTION__
000000000045a5e0 r _ZZ26cudaMemcpy2DFromArray_ptdsE12__FUNCTION__
000000000045a680 r _ZZ26cudaMemcpy3DPeerAsync_ptszE12__FUNCTION__
000000000045add0 r _ZZ26cudaStreamAddCallback_ptszE12__FUNCTION__
000000000045ae50 r _ZZ26cudaStreamGetPriority_ptszE12__FUNCTION__
000000000045acd0 r _ZZ26cudaStreamIsCapturing_ptszE12__FUNCTION__
000000000045adb0 r _ZZ26cudaStreamSynchronize_ptszE12__FUNCTION__
000000000045a220 r _ZZ27cudaDeviceDisablePeerAccessE12__FUNCTION__
000000000045b4a0 r _ZZ27cudaGraphicsGLRegisterImageE12__FUNCTION__
0000000000459ab0 r _ZZ27cudaGraphRemoveDependenciesE12__FUNCTION__
000000000045ab10 r _ZZ27cudaImportExternalSemaphoreE12__FUNCTION__
00000000004595f0 r _ZZ27cudaLaunchCooperativeKernelE12__FUNCTION__
000000000045a2e0 r _ZZ27cudaMemcpyArrayToArray_ptdsE12__FUNCTION__
000000000045a2c0 r _ZZ27cudaMemcpyToArrayAsync_ptszE12__FUNCTION__
000000000045ad50 r _ZZ27cudaStreamBeginCapture_ptszE12__FUNCTION__
000000000045aa70 r _ZZ28cudaDestroyExternalSemaphoreE12__FUNCTION__
000000000045b210 r _ZZ28cudaDeviceGetSharedMemConfigE12__FUNCTION__
000000000045b1f0 r _ZZ28cudaDeviceSetSharedMemConfigE12__FUNCTION__
000000000045b6d0 r _ZZ28cudaEGLStreamConsumerConnectE12__FUNCTION__
000000000045b5e0 r _ZZ28cudaEGLStreamProducerConnectE12__FUNCTION__
000000000045b380 r _ZZ28cudaGLUnmapBufferObjectAsyncE12__FUNCTION__
000000000045b3e0 r _ZZ28cudaGLUnregisterBufferObjectE12__FUNCTION__
000000000045b6f0 r _ZZ28cudaGraphicsEGLRegisterImageE12__FUNCTION__
000000000045b480 r _ZZ28cudaGraphicsGLRegisterBufferE12__FUNCTION__
0000000000459d80 r _ZZ28cudaGraphKernelNodeGetParamsE12__FUNCTION__
0000000000459d60 r _ZZ28cudaGraphKernelNodeSetParamsE12__FUNCTION__
0000000000459d20 r _ZZ28cudaGraphMemcpyNodeGetParamsE12__FUNCTION__
0000000000459d00 r _ZZ28cudaGraphMemcpyNodeSetParamsE12__FUNCTION__
0000000000459cc0 r _ZZ28cudaGraphMemsetNodeGetParamsE12__FUNCTION__
0000000000459ca0 r _ZZ28cudaGraphMemsetNodeSetParamsE12__FUNCTION__
0000000000459b10 r _ZZ28cudaGraphNodeGetDependenciesE12__FUNCTION__
000000000045a4c0 r _ZZ28cudaMemcpyToSymbolAsync_ptszE12__FUNCTION__
000000000045ae70 r _ZZ28cudaStreamCreateWithPriorityE12__FUNCTION__
000000000045a010 r _ZZ29cudaGetTextureAlignmentOffsetE12__FUNCTION__
000000000045b3c0 r _ZZ29cudaGLSetBufferObjectMapFlagsE12__FUNCTION__
000000000045a5c0 r _ZZ29cudaMemcpy2DArrayToArray_ptdsE12__FUNCTION__
000000000045a500 r _ZZ29cudaMemcpy2DToArrayAsync_ptszE12__FUNCTION__
000000000045a2a0 r _ZZ29cudaMemcpyFromArrayAsync_ptszE12__FUNCTION__
000000000045ad70 r _ZZ29cudaStreamAttachMemAsync_ptszE12__FUNCTION__
000000000045acb0 r _ZZ29cudaStreamGetCaptureInfo_ptszE12__FUNCTION__
000000000045a200 r _ZZ30cudaGraphicsUnregisterResourceE12__FUNCTION__
0000000000459af0 r _ZZ30cudaGraphNodeGetDependentNodesE12__FUNCTION__
000000000045a4a0 r _ZZ30cudaMemcpyFromSymbolAsync_ptszE12__FUNCTION__
000000000045a060 r _ZZ31cudaBindTextureToMipmappedArrayE12__FUNCTION__
000000000045b680 r _ZZ31cudaEGLStreamConsumerDisconnectE12__FUNCTION__
000000000045b5c0 r _ZZ31cudaEGLStreamProducerDisconnectE12__FUNCTION__
0000000000459ee0 r _ZZ31cudaGetTextureObjectTextureDescE12__FUNCTION__
0000000000459c00 r _ZZ31cudaGraphChildGraphNodeGetGraphE12__FUNCTION__
000000000045a1e0 r _ZZ31cudaGraphicsResourceSetMapFlagsE12__FUNCTION__
000000000045a4e0 r _ZZ31cudaMemcpy2DFromArrayAsync_ptszE12__FUNCTION__
0000000000459560 r _ZZ31cudaWaitExternalSemaphoresAsyncE12__FUNCTION__
000000000045b260 r _ZZ32cudaDeviceGetStreamPriorityRangeE12__FUNCTION__
000000000045b540 r _ZZ32cudaEGLStreamProducerReturnFrameE12__FUNCTION__
0000000000459e20 r _ZZ32cudaGetSurfaceObjectResourceDescE12__FUNCTION__
0000000000459f00 r _ZZ32cudaGetTextureObjectResourceDescE12__FUNCTION__
0000000000459a40 r _ZZ32cudaGraphExecKernelNodeSetParamsE12__FUNCTION__
000000000045aa20 r _ZZ32cudaLaunchCooperativeKernel_ptszE12__FUNCTION__
000000000045b640 r _ZZ33cudaEGLStreamConsumerAcquireFrameE12__FUNCTION__
000000000045b600 r _ZZ33cudaEGLStreamConsumerReleaseFrameE12__FUNCTION__
000000000045b580 r _ZZ33cudaEGLStreamProducerPresentFrameE12__FUNCTION__
000000000045aba0 r _ZZ33cudaExternalMemoryGetMappedBufferE12__FUNCTION__
0000000000459580 r _ZZ33cudaSignalExternalSemaphoresAsyncE12__FUNCTION__
000000000045ad20 r _ZZ35cudaThreadExchangeStreamCaptureModeE12__FUNCTION__
0000000000459ea0 r _ZZ36cudaGetTextureObjectResourceViewDescE12__FUNCTION__
000000000045a160 r _ZZ36cudaGraphicsResourceGetMappedPointerE12__FUNCTION__
000000000045aaa0 r _ZZ36cudaWaitExternalSemaphoresAsync_ptszE12__FUNCTION__
000000000045b6a0 r _ZZ37cudaEGLStreamConsumerConnectWithFlagsE12__FUNCTION__
000000000045b500 r _ZZ37cudaGraphicsResourceGetMappedEglFrameE12__FUNCTION__
000000000045a120 r _ZZ37cudaGraphicsSubResourceGetMappedArrayE12__FUNCTION__
000000000045b760 r _ZZ37cudaGraphicsVDPAURegisterVideoSurfaceE12__FUNCTION__
000000000045b720 r _ZZ38cudaGraphicsVDPAURegisterOutputSurfaceE12__FUNCTION__
000000000045a9e0 r _ZZ38cudaLaunchCooperativeKernelMultiDeviceE12__FUNCTION__
000000000045aae0 r _ZZ38cudaSignalExternalSemaphoresAsync_ptszE12__FUNCTION__
000000000045ab60 r _ZZ41cudaExternalMemoryGetMappedMipmappedArrayE12__FUNCTION__
000000000045a0e0 r _ZZ43cudaGraphicsResourceGetMappedMipmappedArrayE12__FUNCTION__
000000000045a8c0 r _ZZ45cudaOccupancyMaxActiveBlocksPerMultiprocessorE12__FUNCTION__
000000000045a880 r _ZZ54cudaOccupancyMaxActiveBlocksPerMultiprocessorWithFlagsE12__FUNCTION__
000000000045a812 r _ZZ8cudaFreeE12__FUNCTION__
0000000000674598 b _ZZL22____nv_dummy_param_refPvE5__ref
00000000006745b8 b _ZZL31__nv_cudaEntityRegisterCallbackPPvE5__ref
00000000006745a8 b _ZZL49__device_stub__Z13MatrixMulCUDAILi16EEvPfS0_S0_iiPfS_S_iiE3__f
00000000006745b0 b _ZZL49__device_stub__Z13MatrixMulCUDAILi32EEvPfS0_S0_iiPfS_S_iiE3__f
0000000000675950 b _ZZN6cudart11cuosShmOpenEPKcE5shmid
0000000000675830 b _ZZN6cudart11globalState10loadDriverEvE17loadDriverControl
0000000000675990 b _ZZN6cudart13cuosPosixInitEvE7__pipe2
0000000000675954 b _ZZN6cudart13cuosShmCreateEPKcmE5shmid
000000000045b7d0 r _ZZN6cudart26cuosGetLinuxNamespaceInodeEPKcPKiPxE28NAMESPACE_PATH_FORMAT_STRING
0000000000461680 V _ZZN6cudart3setINS_3mapIP9CUfunc_stPNS_17cudaEntryFunctionEE5entryEE8get_sizeEjPmE5SIZES
0000000000461140 V _ZZN6cudart3setINS_3mapIPK16surfaceReferencePNS_11cudaSurfaceEE5entryEE8get_sizeEjPmE5SIZES
0000000000461200 V _ZZN6cudart3setINS_3mapIPK16textureReferencePNS_11cudaTextureEE5entryEE8get_sizeEjPmE5SIZES
00000000004612c0 V _ZZN6cudart3setINS_3mapIPKvPNS_12cudaVariableEE5entryEE8get_sizeEjPmE5SIZES
0000000000461380 V _ZZN6cudart3setINS_3mapIPKvPNS_17cudaEntryFunctionEE5entryEE8get_sizeEjPmE5SIZES
0000000000461080 V _ZZN6cudart3setINS_3mapIPNS_12globalModuleEPNS_6moduleEE5entryEE8get_sizeEjPmE5SIZES
0000000000461440 V _ZZN6cudart3setIPK16surfaceReferenceE8get_sizeEjPmE5SIZES
0000000000461500 V _ZZN6cudart3setIPK16textureReferenceE8get_sizeEjPmE5SIZES
00000000004615c0 V _ZZN6cudart3setIPKvE8get_sizeEjPmE5SIZES
0000000000461740 V _ZZN6cudart3setIPNS_12contextStateEE8get_sizeEjPmE5SIZES
0000000000460f00 V _ZZN6cudart3setIPNS_12globalModuleEE8get_sizeEjPmE5SIZES
0000000000460fc0 V _ZZN6cudart3setIPNS_6moduleEE8get_sizeEjPmE5SIZES
00000000006758f0 b _ZZN6cudart8cuosInitEvE14__sched_getcpu
0000000000675900 b _ZZN6cudart8cuosInitEvE24__pthread_getaffinity_np
0000000000675910 b _ZZN6cudart8cuosInitEvE24__pthread_setaffinity_np
0000000000675920 b _ZZN6cudart8cuosInitEvE7__pipe2
0000000000675930 b _ZZN6cudart8cuosInitEvE9__accept4
